
DEOS.elf:     file format elf32-avr

Sections:
Idx Name          Size      VMA       LMA       File off  Algn
  0 .data         00000022  00800200  000026d0  00002764  2**0
                  CONTENTS, ALLOC, LOAD, DATA
  1 .text         000026d0  00000000  00000000  00000094  2**1
                  CONTENTS, ALLOC, LOAD, READONLY, CODE
  2 .bss          000001fa  00800222  00800222  00002786  2**0
                  ALLOC
  3 .comment      0000005c  00000000  00000000  00002786  2**0
                  CONTENTS, READONLY
  4 .note.gnu.avr.deviceinfo 00000040  00000000  00000000  000027e4  2**2
                  CONTENTS, READONLY
  5 .debug_aranges 00000640  00000000  00000000  00002824  2**0
                  CONTENTS, READONLY, DEBUGGING
  6 .debug_info   00005fb1  00000000  00000000  00002e64  2**0
                  CONTENTS, READONLY, DEBUGGING
  7 .debug_abbrev 0000206b  00000000  00000000  00008e15  2**0
                  CONTENTS, READONLY, DEBUGGING
  8 .debug_line   0000360b  00000000  00000000  0000ae80  2**0
                  CONTENTS, READONLY, DEBUGGING
  9 .debug_frame  00001174  00000000  00000000  0000e48c  2**2
                  CONTENTS, READONLY, DEBUGGING
 10 .debug_str    000016e9  00000000  00000000  0000f600  2**0
                  CONTENTS, READONLY, DEBUGGING
 11 .debug_loc    00003b8e  00000000  00000000  00010ce9  2**0
                  CONTENTS, READONLY, DEBUGGING
 12 .debug_ranges 00000648  00000000  00000000  00014877  2**0
                  CONTENTS, READONLY, DEBUGGING

Disassembly of section .text:

00000000 <__vectors>:
       0:	9d c2       	rjmp	.+1338   	; 0x53c <__ctors_end>
       2:	00 00       	nop
       4:	cb c2       	rjmp	.+1430   	; 0x59c <__bad_interrupt>
       6:	00 00       	nop
       8:	c9 c2       	rjmp	.+1426   	; 0x59c <__bad_interrupt>
       a:	00 00       	nop
       c:	c7 c2       	rjmp	.+1422   	; 0x59c <__bad_interrupt>
       e:	00 00       	nop
      10:	c5 c2       	rjmp	.+1418   	; 0x59c <__bad_interrupt>
      12:	00 00       	nop
      14:	c3 c2       	rjmp	.+1414   	; 0x59c <__bad_interrupt>
      16:	00 00       	nop
      18:	c1 c2       	rjmp	.+1410   	; 0x59c <__bad_interrupt>
      1a:	00 00       	nop
      1c:	bf c2       	rjmp	.+1406   	; 0x59c <__bad_interrupt>
      1e:	00 00       	nop
      20:	bd c2       	rjmp	.+1402   	; 0x59c <__bad_interrupt>
      22:	00 00       	nop
      24:	bb c2       	rjmp	.+1398   	; 0x59c <__bad_interrupt>
      26:	00 00       	nop
      28:	b9 c2       	rjmp	.+1394   	; 0x59c <__bad_interrupt>
      2a:	00 00       	nop
      2c:	b7 c2       	rjmp	.+1390   	; 0x59c <__bad_interrupt>
      2e:	00 00       	nop
      30:	b5 c2       	rjmp	.+1386   	; 0x59c <__bad_interrupt>
      32:	00 00       	nop
      34:	0c 94 06 0b 	jmp	0x160c	; 0x160c <__vector_13>
      38:	b1 c2       	rjmp	.+1378   	; 0x59c <__bad_interrupt>
      3a:	00 00       	nop
      3c:	af c2       	rjmp	.+1374   	; 0x59c <__bad_interrupt>
      3e:	00 00       	nop
      40:	ad c2       	rjmp	.+1370   	; 0x59c <__bad_interrupt>
      42:	00 00       	nop
      44:	fa c4       	rjmp	.+2548   	; 0xa3a <__vector_17>
      46:	00 00       	nop
      48:	a9 c2       	rjmp	.+1362   	; 0x59c <__bad_interrupt>
      4a:	00 00       	nop
      4c:	a7 c2       	rjmp	.+1358   	; 0x59c <__bad_interrupt>
      4e:	00 00       	nop
      50:	a5 c2       	rjmp	.+1354   	; 0x59c <__bad_interrupt>
      52:	00 00       	nop
      54:	3d c7       	rjmp	.+3706   	; 0xed0 <__vector_21>
      56:	00 00       	nop
      58:	a1 c2       	rjmp	.+1346   	; 0x59c <__bad_interrupt>
      5a:	00 00       	nop
      5c:	9f c2       	rjmp	.+1342   	; 0x59c <__bad_interrupt>
      5e:	00 00       	nop
      60:	9d c2       	rjmp	.+1338   	; 0x59c <__bad_interrupt>
      62:	00 00       	nop
      64:	bc c5       	rjmp	.+2936   	; 0xbde <__vector_25>
      66:	00 00       	nop
      68:	eb c5       	rjmp	.+3030   	; 0xc40 <__vector_26>
      6a:	00 00       	nop
      6c:	97 c2       	rjmp	.+1326   	; 0x59c <__bad_interrupt>
      6e:	00 00       	nop
      70:	95 c2       	rjmp	.+1322   	; 0x59c <__bad_interrupt>
      72:	00 00       	nop
      74:	93 c2       	rjmp	.+1318   	; 0x59c <__bad_interrupt>
      76:	00 00       	nop
      78:	91 c2       	rjmp	.+1314   	; 0x59c <__bad_interrupt>
      7a:	00 00       	nop
      7c:	8f c2       	rjmp	.+1310   	; 0x59c <__bad_interrupt>
      7e:	00 00       	nop
      80:	8d c2       	rjmp	.+1306   	; 0x59c <__bad_interrupt>
      82:	00 00       	nop
      84:	8b c2       	rjmp	.+1302   	; 0x59c <__bad_interrupt>
      86:	00 00       	nop
      88:	89 c2       	rjmp	.+1298   	; 0x59c <__bad_interrupt>
      8a:	00 00       	nop
      8c:	87 c2       	rjmp	.+1294   	; 0x59c <__bad_interrupt>
      8e:	00 00       	nop
      90:	04 c6       	rjmp	.+3080   	; 0xc9a <__vector_36>
      92:	00 00       	nop
      94:	33 c6       	rjmp	.+3174   	; 0xcfc <__vector_37>
      96:	00 00       	nop
      98:	81 c2       	rjmp	.+1282   	; 0x59c <__bad_interrupt>
      9a:	00 00       	nop
      9c:	7f c2       	rjmp	.+1278   	; 0x59c <__bad_interrupt>
      9e:	00 00       	nop
      a0:	7d c2       	rjmp	.+1274   	; 0x59c <__bad_interrupt>
      a2:	00 00       	nop
      a4:	7b c2       	rjmp	.+1270   	; 0x59c <__bad_interrupt>
      a6:	00 00       	nop
      a8:	79 c2       	rjmp	.+1266   	; 0x59c <__bad_interrupt>
      aa:	00 00       	nop
      ac:	77 c2       	rjmp	.+1262   	; 0x59c <__bad_interrupt>
      ae:	00 00       	nop
      b0:	75 c2       	rjmp	.+1258   	; 0x59c <__bad_interrupt>
      b2:	00 00       	nop
      b4:	73 c2       	rjmp	.+1254   	; 0x59c <__bad_interrupt>
      b6:	00 00       	nop
      b8:	71 c2       	rjmp	.+1250   	; 0x59c <__bad_interrupt>
      ba:	00 00       	nop
      bc:	6f c2       	rjmp	.+1246   	; 0x59c <__bad_interrupt>
      be:	00 00       	nop
      c0:	6d c2       	rjmp	.+1242   	; 0x59c <__bad_interrupt>
      c2:	00 00       	nop
      c4:	6b c2       	rjmp	.+1238   	; 0x59c <__bad_interrupt>
      c6:	00 00       	nop
      c8:	69 c2       	rjmp	.+1234   	; 0x59c <__bad_interrupt>
      ca:	00 00       	nop
      cc:	45 c6       	rjmp	.+3210   	; 0xd58 <__vector_51>
      ce:	00 00       	nop
      d0:	74 c6       	rjmp	.+3304   	; 0xdba <__vector_52>
      d2:	00 00       	nop
      d4:	63 c2       	rjmp	.+1222   	; 0x59c <__bad_interrupt>
      d6:	00 00       	nop
      d8:	9d c6       	rjmp	.+3386   	; 0xe14 <__vector_54>
      da:	00 00       	nop
      dc:	cc c6       	rjmp	.+3480   	; 0xe76 <__vector_55>
      de:	00 00       	nop
      e0:	5d c2       	rjmp	.+1210   	; 0x59c <__bad_interrupt>
      e2:	00 00       	nop
      e4:	16 04       	cpc	r1, r6
      e6:	17 04       	cpc	r1, r7
      e8:	17 04       	cpc	r1, r7
      ea:	17 04       	cpc	r1, r7
      ec:	17 04       	cpc	r1, r7
      ee:	17 04       	cpc	r1, r7
      f0:	17 04       	cpc	r1, r7
      f2:	17 04       	cpc	r1, r7
      f4:	17 04       	cpc	r1, r7
      f6:	17 04       	cpc	r1, r7
      f8:	17 04       	cpc	r1, r7
      fa:	17 04       	cpc	r1, r7
      fc:	17 04       	cpc	r1, r7
      fe:	17 04       	cpc	r1, r7
     100:	17 04       	cpc	r1, r7
     102:	17 04       	cpc	r1, r7
     104:	17 04       	cpc	r1, r7
     106:	17 04       	cpc	r1, r7
     108:	0e 04       	cpc	r0, r14
     10a:	17 04       	cpc	r1, r7
     10c:	17 04       	cpc	r1, r7
     10e:	17 04       	cpc	r1, r7
     110:	17 04       	cpc	r1, r7
     112:	17 04       	cpc	r1, r7
     114:	10 04       	cpc	r1, r0
     116:	17 04       	cpc	r1, r7
     118:	17 04       	cpc	r1, r7
     11a:	0c 04       	cpc	r0, r12
     11c:	17 04       	cpc	r1, r7
     11e:	17 04       	cpc	r1, r7
     120:	17 04       	cpc	r1, r7
     122:	17 04       	cpc	r1, r7
     124:	16 04       	cpc	r1, r6
     126:	17 04       	cpc	r1, r7
     128:	17 04       	cpc	r1, r7
     12a:	17 04       	cpc	r1, r7
     12c:	17 04       	cpc	r1, r7
     12e:	17 04       	cpc	r1, r7
     130:	17 04       	cpc	r1, r7
     132:	17 04       	cpc	r1, r7
     134:	17 04       	cpc	r1, r7
     136:	17 04       	cpc	r1, r7
     138:	17 04       	cpc	r1, r7
     13a:	17 04       	cpc	r1, r7
     13c:	12 04       	cpc	r1, r2
     13e:	17 04       	cpc	r1, r7
     140:	17 04       	cpc	r1, r7
     142:	17 04       	cpc	r1, r7
     144:	17 04       	cpc	r1, r7
     146:	14 04       	cpc	r1, r4
     148:	08 04       	cpc	r0, r8
     14a:	17 04       	cpc	r1, r7
     14c:	17 04       	cpc	r1, r7
     14e:	17 04       	cpc	r1, r7
     150:	17 04       	cpc	r1, r7
     152:	17 04       	cpc	r1, r7
     154:	0a 04       	cpc	r0, r10

00000156 <__trampolines_end>:
     156:	43 61       	ori	r20, 0x13	; 19
     158:	6e 27       	eor	r22, r30
     15a:	74 20       	and	r7, r4
     15c:	70 6f       	ori	r23, 0xF0	; 240
     15e:	70 20       	and	r7, r0
     160:	66 72       	andi	r22, 0x26	; 38
     162:	6f 6d       	ori	r22, 0xDF	; 223
     164:	20 65       	ori	r18, 0x50	; 80
     166:	6d 70       	andi	r22, 0x0D	; 13
     168:	74 79       	andi	r23, 0x94	; 148
     16a:	20 72       	andi	r18, 0x20	; 32
     16c:	65 61       	ori	r22, 0x15	; 21
     16e:	64 79       	andi	r22, 0x94	; 148
     170:	20 71       	andi	r18, 0x10	; 16
     172:	75 65       	ori	r23, 0x55	; 85
     174:	75 65       	ori	r23, 0x55	; 85
	...

00000177 <__c.2283>:
     177:	43 61 6e 27 74 20 70 75 73 68 20 6f 6e 20 66 75     Can't push on fu
     187:	6c 6c 20 72 65 61 64 79 20 71 75 65 75 65 00        ll ready queue.

00000196 <__c.2073>:
     196:	20 20 20 20 20 20 20 20 00                                  .

0000019f <__c.2289>:
     19f:	5b 45 52 52 4f 52 5d 20 00                          [ERROR] .

000001a8 <__c.2283>:
     1a8:	20 53 74 61 63 6b 20 63 6f 6c 6c 69 64 65 73 20      Stack collides 
     1b8:	77 69 74 68 20 67 6c 6f 62 61 6c 20 76 61 72 73     with global vars
	...

000001c9 <__c.2281>:
     1c9:	2d 2d 2d 2d 2d 2d 2d 2d 2d 2d 2d 2d 2d 2d 2d 2d     ----------------
     1d9:	2d 2d 2d 2d 2d 2d 2d 2d 2d 2d 2d 2d 2d 2d 2d 2d     ----------------
     1e9:	2d 2d 2d 2d 2d 2d 2d 2d 2d 2d 2d 2d 2d 2d 2d 2d     ----------------
     1f9:	2d 2d 0a 00                                         --..

000001fd <__c.2277>:
     1fd:	5b 49 4e 46 4f 5d 20 20 00                          [INFO]  .

00000206 <__c.2279>:
     206:	55 73 65 64 20 67 6c 6f 62 61 6c 20 76 61 72 73     Used global vars
     216:	3a 20 25 64 2f 25 64 20 62 79 74 65 73 00           : %d/%d bytes.

00000224 <__c.2273>:
     224:	5b 49 4e 46 4f 5d 20 20 00                          [INFO]  .

0000022d <__c.2275>:
     22d:	42 6f 6f 74 69 6e 67 20 44 45 4f 53 20 2e 2e 2e     Booting DEOS ...
	...

0000023e <__c.2271>:
     23e:	0a 0a 23 23 23 23 23 23 23 23 23 23 23 23 23 23     ..##############
     24e:	23 23 23 23 23 23 23 23 23 23 23 23 23 23 23 23     ################
     25e:	23 23 23 23 23 23 23 23 23 23 23 23 23 23 23 23     ################
     26e:	23 23 23 23 0a 00                                   ####..

00000274 <__c.2269>:
     274:	42 6f 6f 74 69 6e 67 20 44 45 4f 53 20 2e 2e 2e     Booting DEOS ...
	...

00000285 <__c.2445>:
     285:	6f 73 5f 73 74 61 72 74 53 63 68 65 64 75 6c 65     os_startSchedule
     295:	72 28 29 20 74 65 72 6d 69 6e 61 74 65 64 20 61     r() terminated a
     2a5:	67 61 69 6e 73 74 20 61 6c 6c 20 6f 64 64 73 20     gainst all odds 
     2b5:	2d 20 73 63 61 72 79 20 73 74 75 66 66 2e 2e 2e     - scary stuff...
	...

000002c6 <__c.2440>:
     2c6:	54 68 65 72 65 20 69 73 20 6e 6f 20 69 64 6c 65     There is no idle
     2d6:	20 70 72 6f 63 00                                    proc.

000002dc <__c.2418>:
     2dc:	6f 73 5f 65 78 65 63 28 29 20 2d 3e 20 00           os_exec() -> .

000002ea <__c.2420>:
     2ea:	4e 6f 20 66 72 65 65 20 73 6c 6f 74 20 61 76 61     No free slot ava
     2fa:	69 6c 61 62 6c 65 0a 00                             ilable..

00000302 <__c.2384>:
     302:	43 68 65 63 6b 73 75 6d 20 6d 69 73 6d 61 74 63     Checksum mismatc
     312:	68 20 69 6e 20 70 72 6f 63 65 73 73 20 25 64 00     h in process %d.

00000322 <__c.2378>:
     322:	53 74 61 63 6b 20 70 6f 69 6e 74 65 72 20 6f 75     Stack pointer ou
     332:	74 20 6f 66 20 62 6f 75 6e 64 73 20 69 6e 20 70     t of bounds in p
     342:	72 6f 63 65 73 73 20 25 64 00                       rocess %d.

0000034c <__c.2371>:
     34c:	43 72 69 74 2e 20 53 65 63 74 69 6f 6e 20 20 20     Crit. Section   
     35c:	75 6e 64 65 72 66 6c 6f 77 00                       underflow.

00000366 <__c.2365>:
     366:	43 72 69 74 2e 20 53 65 63 74 69 6f 6e 20 20 20     Crit. Section   
     376:	6f 76 65 72 66 6c 6f 77 00                          overflow.

0000037f <__c.2436>:
     37f:	20 20 54 45 53 54 20 50 41 53 53 45 44 20 20 20       TEST PASSED   
	...

00000390 <__c.2431>:
     390:	53 63 68 65 64 2e 20 50 61 72 74 69 61 6c 00        Sched. Partial.

0000039f <__c.2429>:
     39f:	50 68 61 73 65 20 34 3a 00                          Phase 4:.

000003a8 <__c.2424>:
     3a8:	53 63 68 65 64 2e 20 41 6c 6c 00                    Sched. All.

000003b3 <__c.2422>:
     3b3:	50 68 61 73 65 20 33 3a 00                          Phase 3:.

000003bc <__c.2417>:
     3bc:	49 64 6c 65 00                                      Idle.

000003c1 <__c.2415>:
     3c1:	50 68 61 73 65 20 32 3a 00                          Phase 2:.

000003ca <__c.2410>:
     3ca:	53 74 72 61 74 65 67 69 65 73 00                    Strategies.

000003d5 <__c.2408>:
     3d5:	50 68 61 73 65 20 31 3a 00                          Phase 1:.

000003de <__c.2385>:
     3de:	49 64 6c 65 20 6e 6f 74 20 73 63 68 65 64 75 6c     Idle not schedul
     3ee:	65 64 00                                            ed.

000003f1 <__c.2383>:
     3f1:	44 79 6e 61 6d 69 63 50 72 69 6f 72 69 74 79 20     DynamicPriority 
     401:	52 6f 75 6e 64 52 6f 62 69 6e 3a 20 00              RoundRobin: .

0000040e <__c.2379>:
     40e:	52 6f 75 6e 64 52 6f 62 69 6e 3a 20 00              RoundRobin: .

0000041b <__c.2376>:
     41b:	4f 4b 00                                            OK.

0000041e <__c.2357>:
     41e:	4e 6f 74 20 69 6d 70 6c 2e 20 6f 72 20 69 64 6c     Not impl. or idl
     42e:	65 20 72 65 74 75 72 6e 65 64 00                    e returned.

00000439 <__c.2349>:
     439:	66 61 6c 73 65 6c 79 20 73 63 68 65 64 2e 00        falsely sched..

00000448 <__c.2346>:
     448:	6e 6f 74 20 73 63 68 65 64 75 6c 61 62 6c 65 00     not schedulable.

00000458 <__c.2343>:
     458:	45 72 72 6f 72 20 44 50 52 52 3a 20 00              Error DPRR: .

00000465 <__c.2339>:
     465:	45 72 72 6f 72 20 52 6f 75 6e 64 52 6f 62 69 6e     Error RoundRobin
     475:	3a 20 00                                            : .

00000478 <__c.2331>:
     478:	4f 4b 00                                            OK.

0000047b <__c.2320>:
     47b:	4e 6f 74 20 69 6d 70 6c 2e 20 6f 72 20 69 64 6c     Not impl. or idl
     48b:	65 20 72 65 74 75 72 6e 65 64 00                    e returned.

00000496 <__c.2311>:
     496:	4f 4b 00                                            OK.

00000499 <__c.2299>:
     499:	4e 6f 74 20 69 6d 70 6c 2e 20 6f 72 20 69 64 6c     Not impl. or idl
     4a9:	65 20 72 65 74 75 72 6e 65 64 00                    e returned.

000004b4 <__c.2292>:
     4b4:	44 79 6e 61 6d 69 63 50 72 69 6f 72 69 74 79 20     DynamicPriority 
     4c4:	52 6f 75 6e 64 52 6f 62 69 6e 00                    RoundRobin.

000004cf <__c.2288>:
     4cf:	52 6f 75 6e 64 52 6f 62 69 6e 00                    RoundRobin.

000004da <__c.2280>:
     4da:	49 6e 76 61 6c 69 64 20 73 74 72 61 74 65 67 79     Invalid strategy
	...

000004eb <scheduling>:
     4eb:	01 02 03 01 02 03 01 02 03 01 02 03 01 02 03 01     ................
     4fb:	02 03 01 02 03 01 02 03 01 02 03 01 02 03 01 02     ................
     50b:	01 02 01 03 02 01 03 01 02 01 03 02 01 03 01 02     ................
     51b:	01 03 02 01 03 01 02 01 03 02 01 03 01 02 01 03     ................
	...

0000052c <__ctors_start>:
     52c:	4c 09       	sbc	r20, r12
     52e:	01 10       	cpse	r0, r1
     530:	2f 10       	cpse	r2, r15
     532:	37 10       	cpse	r3, r7
     534:	3f 10       	cpse	r3, r15
     536:	47 10       	cpse	r4, r7
     538:	4f 10       	cpse	r4, r15
     53a:	57 10       	cpse	r5, r7

0000053c <__ctors_end>:
     53c:	11 24       	eor	r1, r1
     53e:	1f be       	out	0x3f, r1	; 63
     540:	cf ef       	ldi	r28, 0xFF	; 255
     542:	d1 e2       	ldi	r29, 0x21	; 33
     544:	de bf       	out	0x3e, r29	; 62
     546:	cd bf       	out	0x3d, r28	; 61
     548:	00 e0       	ldi	r16, 0x00	; 0
     54a:	0c bf       	out	0x3c, r16	; 60

0000054c <__do_copy_data>:
     54c:	12 e0       	ldi	r17, 0x02	; 2
     54e:	a0 e0       	ldi	r26, 0x00	; 0
     550:	b2 e0       	ldi	r27, 0x02	; 2
     552:	e0 ed       	ldi	r30, 0xD0	; 208
     554:	f6 e2       	ldi	r31, 0x26	; 38
     556:	00 e0       	ldi	r16, 0x00	; 0
     558:	0b bf       	out	0x3b, r16	; 59
     55a:	02 c0       	rjmp	.+4      	; 0x560 <__do_copy_data+0x14>
     55c:	07 90       	elpm	r0, Z+
     55e:	0d 92       	st	X+, r0
     560:	a2 32       	cpi	r26, 0x22	; 34
     562:	b1 07       	cpc	r27, r17
     564:	d9 f7       	brne	.-10     	; 0x55c <__do_copy_data+0x10>

00000566 <__do_clear_bss>:
     566:	24 e0       	ldi	r18, 0x04	; 4
     568:	a2 e2       	ldi	r26, 0x22	; 34
     56a:	b2 e0       	ldi	r27, 0x02	; 2
     56c:	01 c0       	rjmp	.+2      	; 0x570 <.do_clear_bss_start>

0000056e <.do_clear_bss_loop>:
     56e:	1d 92       	st	X+, r1

00000570 <.do_clear_bss_start>:
     570:	ac 31       	cpi	r26, 0x1C	; 28
     572:	b2 07       	cpc	r27, r18
     574:	e1 f7       	brne	.-8      	; 0x56e <.do_clear_bss_loop>

00000576 <__do_global_ctors>:
     576:	12 e0       	ldi	r17, 0x02	; 2
     578:	ce e9       	ldi	r28, 0x9E	; 158
     57a:	d2 e0       	ldi	r29, 0x02	; 2
     57c:	00 e0       	ldi	r16, 0x00	; 0
     57e:	06 c0       	rjmp	.+12     	; 0x58c <__do_global_ctors+0x16>
     580:	21 97       	sbiw	r28, 0x01	; 1
     582:	01 09       	sbc	r16, r1
     584:	80 2f       	mov	r24, r16
     586:	fe 01       	movw	r30, r28
     588:	0e 94 81 10 	call	0x2102	; 0x2102 <__tablejump2__>
     58c:	c6 39       	cpi	r28, 0x96	; 150
     58e:	d1 07       	cpc	r29, r17
     590:	80 e0       	ldi	r24, 0x00	; 0
     592:	08 07       	cpc	r16, r24
     594:	a9 f7       	brne	.-22     	; 0x580 <__do_global_ctors+0xa>
     596:	4f d5       	rcall	.+2718   	; 0x1036 <main>
     598:	0c 94 66 13 	jmp	0x26cc	; 0x26cc <_exit>

0000059c <__bad_interrupt>:
     59c:	31 cd       	rjmp	.-1438   	; 0x0 <__vectors>

0000059e <lcd_enablePulse>:
     59e:	3a d6       	rcall	.+3188   	; 0x1214 <os_enterCriticalSection>
     5a0:	e2 e0       	ldi	r30, 0x02	; 2
     5a2:	f1 e0       	ldi	r31, 0x01	; 1
     5a4:	80 81       	ld	r24, Z
     5a6:	80 64       	ori	r24, 0x40	; 64
     5a8:	80 83       	st	Z, r24
     5aa:	85 e0       	ldi	r24, 0x05	; 5
     5ac:	8a 95       	dec	r24
     5ae:	f1 f7       	brne	.-4      	; 0x5ac <lcd_enablePulse+0xe>
     5b0:	00 00       	nop
     5b2:	80 81       	ld	r24, Z
     5b4:	8f 7b       	andi	r24, 0xBF	; 191
     5b6:	80 83       	st	Z, r24
     5b8:	8f e8       	ldi	r24, 0x8F	; 143
     5ba:	91 e0       	ldi	r25, 0x01	; 1
     5bc:	01 97       	sbiw	r24, 0x01	; 1
     5be:	f1 f7       	brne	.-4      	; 0x5bc <lcd_enablePulse+0x1e>
     5c0:	00 c0       	rjmp	.+0      	; 0x5c2 <lcd_enablePulse+0x24>
     5c2:	00 00       	nop
     5c4:	46 c6       	rjmp	.+3212   	; 0x1252 <os_leaveCriticalSection>
     5c6:	08 95       	ret

000005c8 <lcd_sendNibble>:
     5c8:	cf 93       	push	r28
     5ca:	c8 2f       	mov	r28, r24
     5cc:	23 d6       	rcall	.+3142   	; 0x1214 <os_enterCriticalSection>
     5ce:	c0 ff       	sbrs	r28, 0
     5d0:	04 c0       	rjmp	.+8      	; 0x5da <lcd_sendNibble+0x12>
     5d2:	84 b3       	in	r24, 0x14	; 20
     5d4:	80 62       	ori	r24, 0x20	; 32
     5d6:	84 bb       	out	0x14, r24	; 20
     5d8:	03 c0       	rjmp	.+6      	; 0x5e0 <lcd_sendNibble+0x18>
     5da:	84 b3       	in	r24, 0x14	; 20
     5dc:	8f 7d       	andi	r24, 0xDF	; 223
     5de:	84 bb       	out	0x14, r24	; 20
     5e0:	c1 ff       	sbrs	r28, 1
     5e2:	04 c0       	rjmp	.+8      	; 0x5ec <lcd_sendNibble+0x24>
     5e4:	8e b1       	in	r24, 0x0e	; 14
     5e6:	88 60       	ori	r24, 0x08	; 8
     5e8:	8e b9       	out	0x0e, r24	; 14
     5ea:	03 c0       	rjmp	.+6      	; 0x5f2 <lcd_sendNibble+0x2a>
     5ec:	8e b1       	in	r24, 0x0e	; 14
     5ee:	87 7f       	andi	r24, 0xF7	; 247
     5f0:	8e b9       	out	0x0e, r24	; 14
     5f2:	c2 ff       	sbrs	r28, 2
     5f4:	06 c0       	rjmp	.+12     	; 0x602 <lcd_sendNibble+0x3a>
     5f6:	e2 e0       	ldi	r30, 0x02	; 2
     5f8:	f1 e0       	ldi	r31, 0x01	; 1
     5fa:	80 81       	ld	r24, Z
     5fc:	88 60       	ori	r24, 0x08	; 8
     5fe:	80 83       	st	Z, r24
     600:	05 c0       	rjmp	.+10     	; 0x60c <lcd_sendNibble+0x44>
     602:	e2 e0       	ldi	r30, 0x02	; 2
     604:	f1 e0       	ldi	r31, 0x01	; 1
     606:	80 81       	ld	r24, Z
     608:	87 7f       	andi	r24, 0xF7	; 247
     60a:	80 83       	st	Z, r24
     60c:	c3 ff       	sbrs	r28, 3
     60e:	06 c0       	rjmp	.+12     	; 0x61c <lcd_sendNibble+0x54>
     610:	e2 e0       	ldi	r30, 0x02	; 2
     612:	f1 e0       	ldi	r31, 0x01	; 1
     614:	80 81       	ld	r24, Z
     616:	80 61       	ori	r24, 0x10	; 16
     618:	80 83       	st	Z, r24
     61a:	05 c0       	rjmp	.+10     	; 0x626 <lcd_sendNibble+0x5e>
     61c:	e2 e0       	ldi	r30, 0x02	; 2
     61e:	f1 e0       	ldi	r31, 0x01	; 1
     620:	80 81       	ld	r24, Z
     622:	8f 7e       	andi	r24, 0xEF	; 239
     624:	80 83       	st	Z, r24
     626:	bb df       	rcall	.-138    	; 0x59e <lcd_enablePulse>
     628:	14 d6       	rcall	.+3112   	; 0x1252 <os_leaveCriticalSection>
     62a:	cf 91       	pop	r28
     62c:	08 95       	ret

0000062e <lcd_printf_p>:
     62e:	0f 93       	push	r16
     630:	1f 93       	push	r17
     632:	cf 93       	push	r28
     634:	df 93       	push	r29
     636:	cd b7       	in	r28, 0x3d	; 61
     638:	de b7       	in	r29, 0x3e	; 62
     63a:	ae 01       	movw	r20, r28
     63c:	48 5f       	subi	r20, 0xF8	; 248
     63e:	5f 4f       	sbci	r21, 0xFF	; 255
     640:	da 01       	movw	r26, r20
     642:	6d 91       	ld	r22, X+
     644:	7d 91       	ld	r23, X+
     646:	ad 01       	movw	r20, r26
     648:	06 e1       	ldi	r16, 0x16	; 22
     64a:	14 e0       	ldi	r17, 0x04	; 4
     64c:	d8 01       	movw	r26, r16
     64e:	12 96       	adiw	r26, 0x02	; 2
     650:	ed 91       	ld	r30, X+
     652:	fc 91       	ld	r31, X
     654:	13 97       	sbiw	r26, 0x03	; 3
     656:	83 81       	ldd	r24, Z+3	; 0x03
     658:	88 60       	ori	r24, 0x08	; 8
     65a:	83 83       	std	Z+3, r24	; 0x03
     65c:	80 e0       	ldi	r24, 0x00	; 0
     65e:	92 e0       	ldi	r25, 0x02	; 2
     660:	0e 94 ab 10 	call	0x2156	; 0x2156 <vfprintf_P>
     664:	d8 01       	movw	r26, r16
     666:	12 96       	adiw	r26, 0x02	; 2
     668:	ed 91       	ld	r30, X+
     66a:	fc 91       	ld	r31, X
     66c:	13 97       	sbiw	r26, 0x03	; 3
     66e:	83 81       	ldd	r24, Z+3	; 0x03
     670:	87 7f       	andi	r24, 0xF7	; 247
     672:	83 83       	std	Z+3, r24	; 0x03
     674:	df 91       	pop	r29
     676:	cf 91       	pop	r28
     678:	1f 91       	pop	r17
     67a:	0f 91       	pop	r16
     67c:	08 95       	ret

0000067e <lcd_sendCommand>:
     67e:	cf 93       	push	r28
     680:	c8 2f       	mov	r28, r24
     682:	c8 d5       	rcall	.+2960   	; 0x1214 <os_enterCriticalSection>
     684:	e2 e0       	ldi	r30, 0x02	; 2
     686:	f1 e0       	ldi	r31, 0x01	; 1
     688:	80 81       	ld	r24, Z
     68a:	8f 7d       	andi	r24, 0xDF	; 223
     68c:	80 83       	st	Z, r24
     68e:	8c 2f       	mov	r24, r28
     690:	82 95       	swap	r24
     692:	8f 70       	andi	r24, 0x0F	; 15
     694:	99 df       	rcall	.-206    	; 0x5c8 <lcd_sendNibble>
     696:	8c 2f       	mov	r24, r28
     698:	97 df       	rcall	.-210    	; 0x5c8 <lcd_sendNibble>
     69a:	85 ed       	ldi	r24, 0xD5	; 213
     69c:	8a 95       	dec	r24
     69e:	f1 f7       	brne	.-4      	; 0x69c <lcd_sendCommand+0x1e>
     6a0:	00 00       	nop
     6a2:	d7 d5       	rcall	.+2990   	; 0x1252 <os_leaveCriticalSection>
     6a4:	cf 91       	pop	r28
     6a6:	08 95       	ret

000006a8 <lcd_init>:
     6a8:	b5 d5       	rcall	.+2922   	; 0x1214 <os_enterCriticalSection>
     6aa:	e1 e0       	ldi	r30, 0x01	; 1
     6ac:	f1 e0       	ldi	r31, 0x01	; 1
     6ae:	80 81       	ld	r24, Z
     6b0:	88 67       	ori	r24, 0x78	; 120
     6b2:	80 83       	st	Z, r24
     6b4:	8d b1       	in	r24, 0x0d	; 13
     6b6:	88 60       	ori	r24, 0x08	; 8
     6b8:	8d b9       	out	0x0d, r24	; 13
     6ba:	83 b3       	in	r24, 0x13	; 19
     6bc:	80 62       	ori	r24, 0x20	; 32
     6be:	83 bb       	out	0x13, r24	; 19
     6c0:	80 b3       	in	r24, 0x10	; 16
     6c2:	81 60       	ori	r24, 0x01	; 1
     6c4:	80 bb       	out	0x10, r24	; 16
     6c6:	81 b3       	in	r24, 0x11	; 17
     6c8:	8e 7f       	andi	r24, 0xFE	; 254
     6ca:	81 bb       	out	0x11, r24	; 17
     6cc:	2f ef       	ldi	r18, 0xFF	; 255
     6ce:	80 e7       	ldi	r24, 0x70	; 112
     6d0:	92 e0       	ldi	r25, 0x02	; 2
     6d2:	21 50       	subi	r18, 0x01	; 1
     6d4:	80 40       	sbci	r24, 0x00	; 0
     6d6:	90 40       	sbci	r25, 0x00	; 0
     6d8:	e1 f7       	brne	.-8      	; 0x6d2 <lcd_init+0x2a>
     6da:	00 c0       	rjmp	.+0      	; 0x6dc <lcd_init+0x34>
     6dc:	00 00       	nop
     6de:	83 e0       	ldi	r24, 0x03	; 3
     6e0:	73 df       	rcall	.-282    	; 0x5c8 <lcd_sendNibble>
     6e2:	8f e1       	ldi	r24, 0x1F	; 31
     6e4:	9e e4       	ldi	r25, 0x4E	; 78
     6e6:	01 97       	sbiw	r24, 0x01	; 1
     6e8:	f1 f7       	brne	.-4      	; 0x6e6 <lcd_init+0x3e>
     6ea:	00 c0       	rjmp	.+0      	; 0x6ec <lcd_init+0x44>
     6ec:	00 00       	nop
     6ee:	83 e0       	ldi	r24, 0x03	; 3
     6f0:	6b df       	rcall	.-298    	; 0x5c8 <lcd_sendNibble>
     6f2:	8f e1       	ldi	r24, 0x1F	; 31
     6f4:	93 e0       	ldi	r25, 0x03	; 3
     6f6:	01 97       	sbiw	r24, 0x01	; 1
     6f8:	f1 f7       	brne	.-4      	; 0x6f6 <lcd_init+0x4e>
     6fa:	00 c0       	rjmp	.+0      	; 0x6fc <lcd_init+0x54>
     6fc:	00 00       	nop
     6fe:	83 e0       	ldi	r24, 0x03	; 3
     700:	63 df       	rcall	.-314    	; 0x5c8 <lcd_sendNibble>
     702:	8f e1       	ldi	r24, 0x1F	; 31
     704:	93 e0       	ldi	r25, 0x03	; 3
     706:	01 97       	sbiw	r24, 0x01	; 1
     708:	f1 f7       	brne	.-4      	; 0x706 <lcd_init+0x5e>
     70a:	00 c0       	rjmp	.+0      	; 0x70c <lcd_init+0x64>
     70c:	00 00       	nop
     70e:	82 e0       	ldi	r24, 0x02	; 2
     710:	5b df       	rcall	.-330    	; 0x5c8 <lcd_sendNibble>
     712:	88 e2       	ldi	r24, 0x28	; 40
     714:	b4 df       	rcall	.-152    	; 0x67e <lcd_sendCommand>
     716:	8c e0       	ldi	r24, 0x0C	; 12
     718:	b2 df       	rcall	.-156    	; 0x67e <lcd_sendCommand>
     71a:	81 e0       	ldi	r24, 0x01	; 1
     71c:	b0 df       	rcall	.-160    	; 0x67e <lcd_sendCommand>
     71e:	86 e0       	ldi	r24, 0x06	; 6
     720:	ae df       	rcall	.-164    	; 0x67e <lcd_sendCommand>
     722:	8f e1       	ldi	r24, 0x1F	; 31
     724:	9e e4       	ldi	r25, 0x4E	; 78
     726:	01 97       	sbiw	r24, 0x01	; 1
     728:	f1 f7       	brne	.-4      	; 0x726 <lcd_init+0x7e>
     72a:	00 c0       	rjmp	.+0      	; 0x72c <lcd_init+0x84>
     72c:	00 00       	nop
     72e:	91 c5       	rjmp	.+2850   	; 0x1252 <os_leaveCriticalSection>
     730:	08 95       	ret

00000732 <lcd_clear>:
     732:	70 d5       	rcall	.+2784   	; 0x1214 <os_enterCriticalSection>
     734:	10 92 7e 03 	sts	0x037E, r1	; 0x80037e <charCtr>
     738:	81 e0       	ldi	r24, 0x01	; 1
     73a:	a1 df       	rcall	.-190    	; 0x67e <lcd_sendCommand>
     73c:	8f e3       	ldi	r24, 0x3F	; 63
     73e:	9f e1       	ldi	r25, 0x1F	; 31
     740:	01 97       	sbiw	r24, 0x01	; 1
     742:	f1 f7       	brne	.-4      	; 0x740 <lcd_clear+0xe>
     744:	00 c0       	rjmp	.+0      	; 0x746 <lcd_clear+0x14>
     746:	00 00       	nop
     748:	84 c5       	rjmp	.+2824   	; 0x1252 <os_leaveCriticalSection>
     74a:	08 95       	ret

0000074c <lcd_displayOn>:
     74c:	8c e0       	ldi	r24, 0x0C	; 12
     74e:	97 cf       	rjmp	.-210    	; 0x67e <lcd_sendCommand>
     750:	08 95       	ret

00000752 <lcd_displayOff>:
     752:	88 e0       	ldi	r24, 0x08	; 8
     754:	94 cf       	rjmp	.-216    	; 0x67e <lcd_sendCommand>
     756:	08 95       	ret

00000758 <lcd_blinkOn>:
     758:	8f e0       	ldi	r24, 0x0F	; 15
     75a:	91 cf       	rjmp	.-222    	; 0x67e <lcd_sendCommand>
     75c:	08 95       	ret

0000075e <lcd_goto>:
     75e:	cf 93       	push	r28
     760:	df 93       	push	r29
     762:	d8 2f       	mov	r29, r24
     764:	c6 2f       	mov	r28, r22
     766:	82 30       	cpi	r24, 0x02	; 2
     768:	08 f0       	brcs	.+2      	; 0x76c <lcd_goto+0xe>
     76a:	d1 e0       	ldi	r29, 0x01	; 1
     76c:	53 d5       	rcall	.+2726   	; 0x1214 <os_enterCriticalSection>
     76e:	8c 2f       	mov	r24, r28
     770:	90 e4       	ldi	r25, 0x40	; 64
     772:	d9 9f       	mul	r29, r25
     774:	80 0d       	add	r24, r0
     776:	11 24       	eor	r1, r1
     778:	80 68       	ori	r24, 0x80	; 128
     77a:	81 df       	rcall	.-254    	; 0x67e <lcd_sendCommand>
     77c:	80 e1       	ldi	r24, 0x10	; 16
     77e:	d8 9f       	mul	r29, r24
     780:	c0 0d       	add	r28, r0
     782:	11 24       	eor	r1, r1
     784:	c0 93 7e 03 	sts	0x037E, r28	; 0x80037e <charCtr>
     788:	64 d5       	rcall	.+2760   	; 0x1252 <os_leaveCriticalSection>
     78a:	df 91       	pop	r29
     78c:	cf 91       	pop	r28
     78e:	08 95       	ret

00000790 <lcd_sendData>:
     790:	cf 93       	push	r28
     792:	c8 2f       	mov	r28, r24
     794:	3f d5       	rcall	.+2686   	; 0x1214 <os_enterCriticalSection>
     796:	e2 e0       	ldi	r30, 0x02	; 2
     798:	f1 e0       	ldi	r31, 0x01	; 1
     79a:	80 81       	ld	r24, Z
     79c:	80 62       	ori	r24, 0x20	; 32
     79e:	80 83       	st	Z, r24
     7a0:	8c 2f       	mov	r24, r28
     7a2:	82 95       	swap	r24
     7a4:	8f 70       	andi	r24, 0x0F	; 15
     7a6:	10 df       	rcall	.-480    	; 0x5c8 <lcd_sendNibble>
     7a8:	8c 2f       	mov	r24, r28
     7aa:	0e df       	rcall	.-484    	; 0x5c8 <lcd_sendNibble>
     7ac:	85 ed       	ldi	r24, 0xD5	; 213
     7ae:	8a 95       	dec	r24
     7b0:	f1 f7       	brne	.-4      	; 0x7ae <lcd_sendData+0x1e>
     7b2:	00 00       	nop
     7b4:	4e d5       	rcall	.+2716   	; 0x1252 <os_leaveCriticalSection>
     7b6:	cf 91       	pop	r28
     7b8:	08 95       	ret

000007ba <lcd_line1>:
     7ba:	60 e0       	ldi	r22, 0x00	; 0
     7bc:	80 e0       	ldi	r24, 0x00	; 0
     7be:	cf cf       	rjmp	.-98     	; 0x75e <lcd_goto>
     7c0:	08 95       	ret

000007c2 <lcd_line2>:
     7c2:	60 e0       	ldi	r22, 0x00	; 0
     7c4:	81 e0       	ldi	r24, 0x01	; 1
     7c6:	cb cf       	rjmp	.-106    	; 0x75e <lcd_goto>
     7c8:	08 95       	ret

000007ca <lcd_writeChar>:
     7ca:	cf 93       	push	r28
     7cc:	c8 2f       	mov	r28, r24
     7ce:	22 d5       	rcall	.+2628   	; 0x1214 <os_enterCriticalSection>
     7d0:	ca 30       	cpi	r28, 0x0A	; 10
     7d2:	31 f4       	brne	.+12     	; 0x7e0 <lcd_writeChar+0x16>
     7d4:	80 91 7e 03 	lds	r24, 0x037E	; 0x80037e <charCtr>
     7d8:	80 71       	andi	r24, 0x10	; 16
     7da:	80 5f       	subi	r24, 0xF0	; 240
     7dc:	80 93 7e 03 	sts	0x037E, r24	; 0x80037e <charCtr>
     7e0:	80 91 7e 03 	lds	r24, 0x037E	; 0x80037e <charCtr>
     7e4:	80 31       	cpi	r24, 0x10	; 16
     7e6:	11 f4       	brne	.+4      	; 0x7ec <lcd_writeChar+0x22>
     7e8:	ec df       	rcall	.-40     	; 0x7c2 <lcd_line2>
     7ea:	04 c0       	rjmp	.+8      	; 0x7f4 <lcd_writeChar+0x2a>
     7ec:	80 32       	cpi	r24, 0x20	; 32
     7ee:	11 f4       	brne	.+4      	; 0x7f4 <lcd_writeChar+0x2a>
     7f0:	a0 df       	rcall	.-192    	; 0x732 <lcd_clear>
     7f2:	e3 df       	rcall	.-58     	; 0x7ba <lcd_line1>
     7f4:	8c 2f       	mov	r24, r28
     7f6:	90 e0       	ldi	r25, 0x00	; 0
     7f8:	fc 01       	movw	r30, r24
     7fa:	e4 58       	subi	r30, 0x84	; 132
     7fc:	f1 09       	sbc	r31, r1
     7fe:	e9 33       	cpi	r30, 0x39	; 57
     800:	f1 05       	cpc	r31, r1
     802:	a8 f4       	brcc	.+42     	; 0x82e <lcd_writeChar+0x64>
     804:	88 27       	eor	r24, r24
     806:	ee 58       	subi	r30, 0x8E	; 142
     808:	ff 4f       	sbci	r31, 0xFF	; 255
     80a:	8f 4f       	sbci	r24, 0xFF	; 255
     80c:	0c 94 81 10 	jmp	0x2102	; 0x2102 <__tablejump2__>
     810:	cf ee       	ldi	r28, 0xEF	; 239
     812:	0d c0       	rjmp	.+26     	; 0x82e <lcd_writeChar+0x64>
     814:	c5 ef       	ldi	r28, 0xF5	; 245
     816:	0b c0       	rjmp	.+22     	; 0x82e <lcd_writeChar+0x64>
     818:	c2 ee       	ldi	r28, 0xE2	; 226
     81a:	09 c0       	rjmp	.+18     	; 0x82e <lcd_writeChar+0x64>
     81c:	cf ee       	ldi	r28, 0xEF	; 239
     81e:	07 c0       	rjmp	.+14     	; 0x82e <lcd_writeChar+0x64>
     820:	c5 ef       	ldi	r28, 0xF5	; 245
     822:	05 c0       	rjmp	.+10     	; 0x82e <lcd_writeChar+0x64>
     824:	cf ed       	ldi	r28, 0xDF	; 223
     826:	03 c0       	rjmp	.+6      	; 0x82e <lcd_writeChar+0x64>
     828:	c4 ee       	ldi	r28, 0xE4	; 228
     82a:	01 c0       	rjmp	.+2      	; 0x82e <lcd_writeChar+0x64>
     82c:	c1 ee       	ldi	r28, 0xE1	; 225
     82e:	8c 2f       	mov	r24, r28
     830:	af df       	rcall	.-162    	; 0x790 <lcd_sendData>
     832:	80 91 7e 03 	lds	r24, 0x037E	; 0x80037e <charCtr>
     836:	8f 5f       	subi	r24, 0xFF	; 255
     838:	80 93 7e 03 	sts	0x037E, r24	; 0x80037e <charCtr>
     83c:	0a d5       	rcall	.+2580   	; 0x1252 <os_leaveCriticalSection>
     83e:	cf 91       	pop	r28
     840:	08 95       	ret

00000842 <lcd_stdioPutChar>:
     842:	c3 df       	rcall	.-122    	; 0x7ca <lcd_writeChar>
     844:	80 e0       	ldi	r24, 0x00	; 0
     846:	90 e0       	ldi	r25, 0x00	; 0
     848:	08 95       	ret

0000084a <lcd_writeProgString>:
     84a:	0f 93       	push	r16
     84c:	1f 93       	push	r17
     84e:	cf 93       	push	r28
     850:	df 93       	push	r29
     852:	ec 01       	movw	r28, r24
     854:	df d4       	rcall	.+2494   	; 0x1214 <os_enterCriticalSection>
     856:	02 c0       	rjmp	.+4      	; 0x85c <lcd_writeProgString+0x12>
     858:	b8 df       	rcall	.-144    	; 0x7ca <lcd_writeChar>
     85a:	e8 01       	movw	r28, r16
     85c:	8e 01       	movw	r16, r28
     85e:	0f 5f       	subi	r16, 0xFF	; 255
     860:	1f 4f       	sbci	r17, 0xFF	; 255
     862:	fe 01       	movw	r30, r28
     864:	84 91       	lpm	r24, Z
     866:	81 11       	cpse	r24, r1
     868:	f7 cf       	rjmp	.-18     	; 0x858 <lcd_writeProgString+0xe>
     86a:	f3 d4       	rcall	.+2534   	; 0x1252 <os_leaveCriticalSection>
     86c:	df 91       	pop	r29
     86e:	cf 91       	pop	r28
     870:	1f 91       	pop	r17
     872:	0f 91       	pop	r16
     874:	08 95       	ret

00000876 <lcd_writeDec>:
     876:	cf 92       	push	r12
     878:	df 92       	push	r13
     87a:	ef 92       	push	r14
     87c:	ff 92       	push	r15
     87e:	1f 93       	push	r17
     880:	cf 93       	push	r28
     882:	df 93       	push	r29
     884:	ec 01       	movw	r28, r24
     886:	89 2b       	or	r24, r25
     888:	19 f4       	brne	.+6      	; 0x890 <lcd_writeDec+0x1a>
     88a:	80 e3       	ldi	r24, 0x30	; 48
     88c:	9e df       	rcall	.-196    	; 0x7ca <lcd_writeChar>
     88e:	30 c0       	rjmp	.+96     	; 0x8f0 <lcd_writeDec+0x7a>
     890:	c1 d4       	rcall	.+2434   	; 0x1214 <os_enterCriticalSection>
     892:	10 e0       	ldi	r17, 0x00	; 0
     894:	0f 2e       	mov	r0, r31
     896:	f0 e1       	ldi	r31, 0x10	; 16
     898:	cf 2e       	mov	r12, r31
     89a:	f7 e2       	ldi	r31, 0x27	; 39
     89c:	df 2e       	mov	r13, r31
     89e:	e1 2c       	mov	r14, r1
     8a0:	f1 2c       	mov	r15, r1
     8a2:	f0 2d       	mov	r31, r0
     8a4:	be 01       	movw	r22, r28
     8a6:	80 e0       	ldi	r24, 0x00	; 0
     8a8:	90 e0       	ldi	r25, 0x00	; 0
     8aa:	a7 01       	movw	r20, r14
     8ac:	96 01       	movw	r18, r12
     8ae:	0e 94 5f 10 	call	0x20be	; 0x20be <__udivmodsi4>
     8b2:	42 2f       	mov	r20, r18
     8b4:	50 e0       	ldi	r21, 0x00	; 0
     8b6:	4c 9d       	mul	r20, r12
     8b8:	c0 01       	movw	r24, r0
     8ba:	4d 9d       	mul	r20, r13
     8bc:	90 0d       	add	r25, r0
     8be:	5c 9d       	mul	r21, r12
     8c0:	90 0d       	add	r25, r0
     8c2:	11 24       	eor	r1, r1
     8c4:	c8 1b       	sub	r28, r24
     8c6:	d9 0b       	sbc	r29, r25
     8c8:	12 2b       	or	r17, r18
     8ca:	19 f0       	breq	.+6      	; 0x8d2 <lcd_writeDec+0x5c>
     8cc:	80 e3       	ldi	r24, 0x30	; 48
     8ce:	82 0f       	add	r24, r18
     8d0:	7c df       	rcall	.-264    	; 0x7ca <lcd_writeChar>
     8d2:	c7 01       	movw	r24, r14
     8d4:	b6 01       	movw	r22, r12
     8d6:	2a e0       	ldi	r18, 0x0A	; 10
     8d8:	30 e0       	ldi	r19, 0x00	; 0
     8da:	40 e0       	ldi	r20, 0x00	; 0
     8dc:	50 e0       	ldi	r21, 0x00	; 0
     8de:	0e 94 5f 10 	call	0x20be	; 0x20be <__udivmodsi4>
     8e2:	69 01       	movw	r12, r18
     8e4:	7a 01       	movw	r14, r20
     8e6:	23 2b       	or	r18, r19
     8e8:	24 2b       	or	r18, r20
     8ea:	25 2b       	or	r18, r21
     8ec:	d9 f6       	brne	.-74     	; 0x8a4 <lcd_writeDec+0x2e>
     8ee:	b1 d4       	rcall	.+2402   	; 0x1252 <os_leaveCriticalSection>
     8f0:	df 91       	pop	r29
     8f2:	cf 91       	pop	r28
     8f4:	1f 91       	pop	r17
     8f6:	ff 90       	pop	r15
     8f8:	ef 90       	pop	r14
     8fa:	df 90       	pop	r13
     8fc:	cf 90       	pop	r12
     8fe:	08 95       	ret

00000900 <rq_isEmpty>:
     900:	fc 01       	movw	r30, r24
     902:	21 85       	ldd	r18, Z+9	; 0x09
     904:	92 85       	ldd	r25, Z+10	; 0x0a
     906:	81 e0       	ldi	r24, 0x01	; 1
     908:	29 13       	cpse	r18, r25
     90a:	80 e0       	ldi	r24, 0x00	; 0
     90c:	08 95       	ret

0000090e <rq_pop>:
     90e:	cf 93       	push	r28
     910:	df 93       	push	r29
     912:	ec 01       	movw	r28, r24
     914:	f5 df       	rcall	.-22     	; 0x900 <rq_isEmpty>
     916:	88 23       	and	r24, r24
     918:	39 f0       	breq	.+14     	; 0x928 <rq_pop+0x1a>
     91a:	86 e5       	ldi	r24, 0x56	; 86
     91c:	91 e0       	ldi	r25, 0x01	; 1
     91e:	9f 93       	push	r25
     920:	8f 93       	push	r24
     922:	ec d3       	rcall	.+2008   	; 0x10fc <os_errorPstr>
     924:	0f 90       	pop	r0
     926:	0f 90       	pop	r0
     928:	99 85       	ldd	r25, Y+9	; 0x09
     92a:	29 2f       	mov	r18, r25
     92c:	30 e0       	ldi	r19, 0x00	; 0
     92e:	fe 01       	movw	r30, r28
     930:	e2 0f       	add	r30, r18
     932:	f3 1f       	adc	r31, r19
     934:	80 81       	ld	r24, Z
     936:	2f 5f       	subi	r18, 0xFF	; 255
     938:	3f 4f       	sbci	r19, 0xFF	; 255
     93a:	29 30       	cpi	r18, 0x09	; 9
     93c:	31 05       	cpc	r19, r1
     93e:	14 f4       	brge	.+4      	; 0x944 <rq_pop+0x36>
     940:	9f 5f       	subi	r25, 0xFF	; 255
     942:	01 c0       	rjmp	.+2      	; 0x946 <rq_pop+0x38>
     944:	90 e0       	ldi	r25, 0x00	; 0
     946:	99 87       	std	Y+9, r25	; 0x09
     948:	df 91       	pop	r29
     94a:	cf 91       	pop	r28
     94c:	08 95       	ret

0000094e <rq_isFull>:
     94e:	fc 01       	movw	r30, r24
     950:	22 85       	ldd	r18, Z+10	; 0x0a
     952:	30 e0       	ldi	r19, 0x00	; 0
     954:	2f 5f       	subi	r18, 0xFF	; 255
     956:	3f 4f       	sbci	r19, 0xFF	; 255
     958:	29 30       	cpi	r18, 0x09	; 9
     95a:	31 05       	cpc	r19, r1
     95c:	14 f0       	brlt	.+4      	; 0x962 <rq_isFull+0x14>
     95e:	20 e0       	ldi	r18, 0x00	; 0
     960:	30 e0       	ldi	r19, 0x00	; 0
     962:	fc 01       	movw	r30, r24
     964:	41 85       	ldd	r20, Z+9	; 0x09
     966:	50 e0       	ldi	r21, 0x00	; 0
     968:	81 e0       	ldi	r24, 0x01	; 1
     96a:	24 17       	cp	r18, r20
     96c:	35 07       	cpc	r19, r21
     96e:	09 f0       	breq	.+2      	; 0x972 <rq_isFull+0x24>
     970:	80 e0       	ldi	r24, 0x00	; 0
     972:	08 95       	ret

00000974 <rq_push>:
     974:	1f 93       	push	r17
     976:	cf 93       	push	r28
     978:	df 93       	push	r29
     97a:	ec 01       	movw	r28, r24
     97c:	16 2f       	mov	r17, r22
     97e:	e7 df       	rcall	.-50     	; 0x94e <rq_isFull>
     980:	88 23       	and	r24, r24
     982:	39 f0       	breq	.+14     	; 0x992 <rq_push+0x1e>
     984:	87 e7       	ldi	r24, 0x77	; 119
     986:	91 e0       	ldi	r25, 0x01	; 1
     988:	9f 93       	push	r25
     98a:	8f 93       	push	r24
     98c:	b7 d3       	rcall	.+1902   	; 0x10fc <os_errorPstr>
     98e:	0f 90       	pop	r0
     990:	0f 90       	pop	r0
     992:	2a 85       	ldd	r18, Y+10	; 0x0a
     994:	82 2f       	mov	r24, r18
     996:	90 e0       	ldi	r25, 0x00	; 0
     998:	fe 01       	movw	r30, r28
     99a:	e8 0f       	add	r30, r24
     99c:	f9 1f       	adc	r31, r25
     99e:	10 83       	st	Z, r17
     9a0:	01 96       	adiw	r24, 0x01	; 1
     9a2:	09 97       	sbiw	r24, 0x09	; 9
     9a4:	14 f4       	brge	.+4      	; 0x9aa <rq_push+0x36>
     9a6:	2f 5f       	subi	r18, 0xFF	; 255
     9a8:	01 c0       	rjmp	.+2      	; 0x9ac <rq_push+0x38>
     9aa:	20 e0       	ldi	r18, 0x00	; 0
     9ac:	2a 87       	std	Y+10, r18	; 0x0a
     9ae:	df 91       	pop	r29
     9b0:	cf 91       	pop	r28
     9b2:	1f 91       	pop	r17
     9b4:	08 95       	ret

000009b6 <rq_clear>:
     9b6:	fc 01       	movw	r30, r24
     9b8:	11 86       	std	Z+9, r1	; 0x09
     9ba:	12 86       	std	Z+10, r1	; 0x0a
     9bc:	08 95       	ret

000009be <rq_remove>:
     9be:	fc 01       	movw	r30, r24
     9c0:	21 85       	ldd	r18, Z+9	; 0x09
     9c2:	30 e0       	ldi	r19, 0x00	; 0
     9c4:	32 c0       	rjmp	.+100    	; 0xa2a <rq_remove+0x6c>
     9c6:	df 01       	movw	r26, r30
     9c8:	a2 0f       	add	r26, r18
     9ca:	b3 1f       	adc	r27, r19
     9cc:	5c 91       	ld	r21, X
     9ce:	56 13       	cpse	r21, r22
     9d0:	24 c0       	rjmp	.+72     	; 0xa1a <rq_remove+0x5c>
     9d2:	18 c0       	rjmp	.+48     	; 0xa04 <rq_remove+0x46>
     9d4:	b9 01       	movw	r22, r18
     9d6:	6f 5f       	subi	r22, 0xFF	; 255
     9d8:	7f 4f       	sbci	r23, 0xFF	; 255
     9da:	69 30       	cpi	r22, 0x09	; 9
     9dc:	71 05       	cpc	r23, r1
     9de:	1c f0       	brlt	.+6      	; 0x9e6 <rq_remove+0x28>
     9e0:	a0 e0       	ldi	r26, 0x00	; 0
     9e2:	b0 e0       	ldi	r27, 0x00	; 0
     9e4:	01 c0       	rjmp	.+2      	; 0x9e8 <rq_remove+0x2a>
     9e6:	db 01       	movw	r26, r22
     9e8:	ae 0f       	add	r26, r30
     9ea:	bf 1f       	adc	r27, r31
     9ec:	5c 91       	ld	r21, X
     9ee:	df 01       	movw	r26, r30
     9f0:	a2 0f       	add	r26, r18
     9f2:	b3 1f       	adc	r27, r19
     9f4:	5c 93       	st	X, r21
     9f6:	69 30       	cpi	r22, 0x09	; 9
     9f8:	71 05       	cpc	r23, r1
     9fa:	1c f0       	brlt	.+6      	; 0xa02 <rq_remove+0x44>
     9fc:	20 e0       	ldi	r18, 0x00	; 0
     9fe:	30 e0       	ldi	r19, 0x00	; 0
     a00:	01 c0       	rjmp	.+2      	; 0xa04 <rq_remove+0x46>
     a02:	9b 01       	movw	r18, r22
     a04:	28 17       	cp	r18, r24
     a06:	39 07       	cpc	r19, r25
     a08:	29 f7       	brne	.-54     	; 0x9d4 <rq_remove+0x16>
     a0a:	44 23       	and	r20, r20
     a0c:	11 f0       	breq	.+4      	; 0xa12 <rq_remove+0x54>
     a0e:	41 50       	subi	r20, 0x01	; 1
     a10:	01 c0       	rjmp	.+2      	; 0xa14 <rq_remove+0x56>
     a12:	48 e0       	ldi	r20, 0x08	; 8
     a14:	42 87       	std	Z+10, r20	; 0x0a
     a16:	81 e0       	ldi	r24, 0x01	; 1
     a18:	08 95       	ret
     a1a:	c9 01       	movw	r24, r18
     a1c:	01 96       	adiw	r24, 0x01	; 1
     a1e:	20 e0       	ldi	r18, 0x00	; 0
     a20:	30 e0       	ldi	r19, 0x00	; 0
     a22:	89 30       	cpi	r24, 0x09	; 9
     a24:	91 05       	cpc	r25, r1
     a26:	0c f4       	brge	.+2      	; 0xa2a <rq_remove+0x6c>
     a28:	9c 01       	movw	r18, r24
     a2a:	42 85       	ldd	r20, Z+10	; 0x0a
     a2c:	84 2f       	mov	r24, r20
     a2e:	90 e0       	ldi	r25, 0x00	; 0
     a30:	28 17       	cp	r18, r24
     a32:	39 07       	cpc	r19, r25
     a34:	41 f6       	brne	.-112    	; 0x9c6 <rq_remove+0x8>
     a36:	80 e0       	ldi	r24, 0x00	; 0
     a38:	08 95       	ret

00000a3a <__vector_17>:
     a3a:	1f 92       	push	r1
     a3c:	0f 92       	push	r0
     a3e:	0f b6       	in	r0, 0x3f	; 63
     a40:	0f 92       	push	r0
     a42:	11 24       	eor	r1, r1
     a44:	8f 93       	push	r24
     a46:	9f 93       	push	r25
     a48:	af 93       	push	r26
     a4a:	bf 93       	push	r27
     a4c:	80 91 22 02 	lds	r24, 0x0222	; 0x800222 <__data_end>
     a50:	90 91 23 02 	lds	r25, 0x0223	; 0x800223 <__data_end+0x1>
     a54:	a0 91 24 02 	lds	r26, 0x0224	; 0x800224 <__data_end+0x2>
     a58:	b0 91 25 02 	lds	r27, 0x0225	; 0x800225 <__data_end+0x3>
     a5c:	90 58       	subi	r25, 0x80	; 128
     a5e:	af 4f       	sbci	r26, 0xFF	; 255
     a60:	bf 4f       	sbci	r27, 0xFF	; 255
     a62:	80 93 22 02 	sts	0x0222, r24	; 0x800222 <__data_end>
     a66:	90 93 23 02 	sts	0x0223, r25	; 0x800223 <__data_end+0x1>
     a6a:	a0 93 24 02 	sts	0x0224, r26	; 0x800224 <__data_end+0x2>
     a6e:	b0 93 25 02 	sts	0x0225, r27	; 0x800225 <__data_end+0x3>
     a72:	bf 91       	pop	r27
     a74:	af 91       	pop	r26
     a76:	9f 91       	pop	r25
     a78:	8f 91       	pop	r24
     a7a:	0f 90       	pop	r0
     a7c:	0f be       	out	0x3f, r0	; 63
     a7e:	0f 90       	pop	r0
     a80:	1f 90       	pop	r1
     a82:	18 95       	reti

00000a84 <stopWatch_deactivateInterrupt>:
     a84:	e1 e8       	ldi	r30, 0x81	; 129
     a86:	f0 e0       	ldi	r31, 0x00	; 0
     a88:	80 81       	ld	r24, Z
     a8a:	8e 7f       	andi	r24, 0xFE	; 254
     a8c:	80 83       	st	Z, r24
     a8e:	80 81       	ld	r24, Z
     a90:	8d 7f       	andi	r24, 0xFD	; 253
     a92:	80 83       	st	Z, r24
     a94:	80 81       	ld	r24, Z
     a96:	8b 7f       	andi	r24, 0xFB	; 251
     a98:	80 83       	st	Z, r24
     a9a:	08 95       	ret

00000a9c <stopWatch_init>:
     a9c:	10 92 80 00 	sts	0x0080, r1	; 0x800080 <__TEXT_REGION_LENGTH__+0x7c0080>
     aa0:	10 92 85 00 	sts	0x0085, r1	; 0x800085 <__TEXT_REGION_LENGTH__+0x7c0085>
     aa4:	10 92 84 00 	sts	0x0084, r1	; 0x800084 <__TEXT_REGION_LENGTH__+0x7c0084>
     aa8:	81 e0       	ldi	r24, 0x01	; 1
     aaa:	90 e0       	ldi	r25, 0x00	; 0
     aac:	90 93 89 00 	sts	0x0089, r25	; 0x800089 <__TEXT_REGION_LENGTH__+0x7c0089>
     ab0:	80 93 88 00 	sts	0x0088, r24	; 0x800088 <__TEXT_REGION_LENGTH__+0x7c0088>
     ab4:	ef e6       	ldi	r30, 0x6F	; 111
     ab6:	f0 e0       	ldi	r31, 0x00	; 0
     ab8:	80 81       	ld	r24, Z
     aba:	81 60       	ori	r24, 0x01	; 1
     abc:	80 83       	st	Z, r24
     abe:	e2 cf       	rjmp	.-60     	; 0xa84 <stopWatch_deactivateInterrupt>
     ac0:	08 95       	ret

00000ac2 <usb2_init>:
     ac2:	a8 d3       	rcall	.+1872   	; 0x1214 <os_enterCriticalSection>
     ac4:	83 e0       	ldi	r24, 0x03	; 3
     ac6:	90 e0       	ldi	r25, 0x00	; 0
     ac8:	90 93 d5 00 	sts	0x00D5, r25	; 0x8000d5 <__TEXT_REGION_LENGTH__+0x7c00d5>
     acc:	80 93 d4 00 	sts	0x00D4, r24	; 0x8000d4 <__TEXT_REGION_LENGTH__+0x7c00d4>
     ad0:	e0 ed       	ldi	r30, 0xD0	; 208
     ad2:	f0 e0       	ldi	r31, 0x00	; 0
     ad4:	80 81       	ld	r24, Z
     ad6:	8d 7f       	andi	r24, 0xFD	; 253
     ad8:	80 83       	st	Z, r24
     ada:	e1 ed       	ldi	r30, 0xD1	; 209
     adc:	f0 e0       	ldi	r31, 0x00	; 0
     ade:	80 81       	ld	r24, Z
     ae0:	80 61       	ori	r24, 0x10	; 16
     ae2:	80 83       	st	Z, r24
     ae4:	80 81       	ld	r24, Z
     ae6:	88 60       	ori	r24, 0x08	; 8
     ae8:	80 83       	st	Z, r24
     aea:	b3 c3       	rjmp	.+1894   	; 0x1252 <os_leaveCriticalSection>
     aec:	08 95       	ret

00000aee <usb2_write>:
     aee:	90 91 d0 00 	lds	r25, 0x00D0	; 0x8000d0 <__TEXT_REGION_LENGTH__+0x7c00d0>
     af2:	95 ff       	sbrs	r25, 5
     af4:	fc cf       	rjmp	.-8      	; 0xaee <usb2_write>
     af6:	80 93 d6 00 	sts	0x00D6, r24	; 0x8000d6 <__TEXT_REGION_LENGTH__+0x7c00d6>
     afa:	08 95       	ret

00000afc <usb2_writeProgString>:
     afc:	0f 93       	push	r16
     afe:	1f 93       	push	r17
     b00:	cf 93       	push	r28
     b02:	df 93       	push	r29
     b04:	8c 01       	movw	r16, r24
     b06:	86 d3       	rcall	.+1804   	; 0x1214 <os_enterCriticalSection>
     b08:	d0 e0       	ldi	r29, 0x00	; 0
     b0a:	0d c0       	rjmp	.+26     	; 0xb26 <usb2_writeProgString+0x2a>
     b0c:	f8 01       	movw	r30, r16
     b0e:	ed 0f       	add	r30, r29
     b10:	f1 1d       	adc	r31, r1
     b12:	c4 91       	lpm	r28, Z
     b14:	ca 30       	cpi	r28, 0x0A	; 10
     b16:	11 f4       	brne	.+4      	; 0xb1c <usb2_writeProgString+0x20>
     b18:	8d e0       	ldi	r24, 0x0D	; 13
     b1a:	e9 df       	rcall	.-46     	; 0xaee <usb2_write>
     b1c:	cc 23       	and	r28, r28
     b1e:	29 f0       	breq	.+10     	; 0xb2a <usb2_writeProgString+0x2e>
     b20:	8c 2f       	mov	r24, r28
     b22:	e5 df       	rcall	.-54     	; 0xaee <usb2_write>
     b24:	df 5f       	subi	r29, 0xFF	; 255
     b26:	df 3f       	cpi	r29, 0xFF	; 255
     b28:	89 f7       	brne	.-30     	; 0xb0c <usb2_writeProgString+0x10>
     b2a:	93 d3       	rcall	.+1830   	; 0x1252 <os_leaveCriticalSection>
     b2c:	df 91       	pop	r29
     b2e:	cf 91       	pop	r28
     b30:	1f 91       	pop	r17
     b32:	0f 91       	pop	r16
     b34:	08 95       	ret

00000b36 <terminal_init>:
     b36:	c5 df       	rcall	.-118    	; 0xac2 <usb2_init>
     b38:	8e e0       	ldi	r24, 0x0E	; 14
     b3a:	92 e0       	ldi	r25, 0x02	; 2
     b3c:	90 93 19 04 	sts	0x0419, r25	; 0x800419 <__iob+0x3>
     b40:	80 93 18 04 	sts	0x0418, r24	; 0x800418 <__iob+0x2>
     b44:	08 95       	ret

00000b46 <terminal_writeChar>:
     b46:	cf 93       	push	r28
     b48:	c8 2f       	mov	r28, r24
     b4a:	8a 30       	cpi	r24, 0x0A	; 10
     b4c:	11 f4       	brne	.+4      	; 0xb52 <terminal_writeChar+0xc>
     b4e:	8d e0       	ldi	r24, 0x0D	; 13
     b50:	ce df       	rcall	.-100    	; 0xaee <usb2_write>
     b52:	8c 2f       	mov	r24, r28
     b54:	cc df       	rcall	.-104    	; 0xaee <usb2_write>
     b56:	cf 91       	pop	r28
     b58:	08 95       	ret

00000b5a <terminal_writeProgString>:
     b5a:	d0 cf       	rjmp	.-96     	; 0xafc <usb2_writeProgString>
     b5c:	08 95       	ret

00000b5e <stdio_put_char>:
     b5e:	cf 93       	push	r28
     b60:	c8 2f       	mov	r28, r24
     b62:	58 d3       	rcall	.+1712   	; 0x1214 <os_enterCriticalSection>
     b64:	8c 2f       	mov	r24, r28
     b66:	ef df       	rcall	.-34     	; 0xb46 <terminal_writeChar>
     b68:	ca 30       	cpi	r28, 0x0A	; 10
     b6a:	19 f4       	brne	.+6      	; 0xb72 <stdio_put_char+0x14>
     b6c:	86 e9       	ldi	r24, 0x96	; 150
     b6e:	91 e0       	ldi	r25, 0x01	; 1
     b70:	f4 df       	rcall	.-24     	; 0xb5a <terminal_writeProgString>
     b72:	6f d3       	rcall	.+1758   	; 0x1252 <os_leaveCriticalSection>
     b74:	80 e0       	ldi	r24, 0x00	; 0
     b76:	90 e0       	ldi	r25, 0x00	; 0
     b78:	cf 91       	pop	r28
     b7a:	08 95       	ret

00000b7c <terminal_newLine>:
     b7c:	8a e0       	ldi	r24, 0x0A	; 10
     b7e:	e3 cf       	rjmp	.-58     	; 0xb46 <terminal_writeChar>
     b80:	08 95       	ret

00000b82 <terminal_log_printf_p>:
     b82:	0f 93       	push	r16
     b84:	1f 93       	push	r17
     b86:	cf 93       	push	r28
     b88:	df 93       	push	r29
     b8a:	cd b7       	in	r28, 0x3d	; 61
     b8c:	de b7       	in	r29, 0x3e	; 62
     b8e:	42 d3       	rcall	.+1668   	; 0x1214 <os_enterCriticalSection>
     b90:	88 85       	ldd	r24, Y+8	; 0x08
     b92:	99 85       	ldd	r25, Y+9	; 0x09
     b94:	e2 df       	rcall	.-60     	; 0xb5a <terminal_writeProgString>
     b96:	06 e1       	ldi	r16, 0x16	; 22
     b98:	14 e0       	ldi	r17, 0x04	; 4
     b9a:	d8 01       	movw	r26, r16
     b9c:	12 96       	adiw	r26, 0x02	; 2
     b9e:	ed 91       	ld	r30, X+
     ba0:	fc 91       	ld	r31, X
     ba2:	13 97       	sbiw	r26, 0x03	; 3
     ba4:	83 81       	ldd	r24, Z+3	; 0x03
     ba6:	88 60       	ori	r24, 0x08	; 8
     ba8:	83 83       	std	Z+3, r24	; 0x03
     baa:	ae 01       	movw	r20, r28
     bac:	44 5f       	subi	r20, 0xF4	; 244
     bae:	5f 4f       	sbci	r21, 0xFF	; 255
     bb0:	6a 85       	ldd	r22, Y+10	; 0x0a
     bb2:	7b 85       	ldd	r23, Y+11	; 0x0b
     bb4:	12 96       	adiw	r26, 0x02	; 2
     bb6:	8d 91       	ld	r24, X+
     bb8:	9c 91       	ld	r25, X
     bba:	13 97       	sbiw	r26, 0x03	; 3
     bbc:	0e 94 ab 10 	call	0x2156	; 0x2156 <vfprintf_P>
     bc0:	d8 01       	movw	r26, r16
     bc2:	12 96       	adiw	r26, 0x02	; 2
     bc4:	ed 91       	ld	r30, X+
     bc6:	fc 91       	ld	r31, X
     bc8:	13 97       	sbiw	r26, 0x03	; 3
     bca:	83 81       	ldd	r24, Z+3	; 0x03
     bcc:	87 7f       	andi	r24, 0xF7	; 247
     bce:	83 83       	std	Z+3, r24	; 0x03
     bd0:	d5 df       	rcall	.-86     	; 0xb7c <terminal_newLine>
     bd2:	3f d3       	rcall	.+1662   	; 0x1252 <os_leaveCriticalSection>
     bd4:	df 91       	pop	r29
     bd6:	cf 91       	pop	r28
     bd8:	1f 91       	pop	r17
     bda:	0f 91       	pop	r16
     bdc:	08 95       	ret

00000bde <__vector_25>:
     bde:	1f 92       	push	r1
     be0:	0f 92       	push	r0
     be2:	0f b6       	in	r0, 0x3f	; 63
     be4:	0f 92       	push	r0
     be6:	11 24       	eor	r1, r1
     be8:	0b b6       	in	r0, 0x3b	; 59
     bea:	0f 92       	push	r0
     bec:	2f 93       	push	r18
     bee:	8f 93       	push	r24
     bf0:	9f 93       	push	r25
     bf2:	ef 93       	push	r30
     bf4:	ff 93       	push	r31
     bf6:	80 91 c0 00 	lds	r24, 0x00C0	; 0x8000c0 <__TEXT_REGION_LENGTH__+0x7c00c0>
     bfa:	20 91 c6 00 	lds	r18, 0x00C6	; 0x8000c6 <__TEXT_REGION_LENGTH__+0x7c00c6>
     bfe:	8c 71       	andi	r24, 0x1C	; 28
     c00:	e0 91 77 03 	lds	r30, 0x0377	; 0x800377 <UART0_RxHead>
     c04:	ef 5f       	subi	r30, 0xFF	; 255
     c06:	90 91 76 03 	lds	r25, 0x0376	; 0x800376 <UART0_RxTail>
     c0a:	e9 17       	cp	r30, r25
     c0c:	39 f0       	breq	.+14     	; 0xc1c <__vector_25+0x3e>
     c0e:	e0 93 77 03 	sts	0x0377, r30	; 0x800377 <UART0_RxHead>
     c12:	f0 e0       	ldi	r31, 0x00	; 0
     c14:	e6 58       	subi	r30, 0x86	; 134
     c16:	fc 4f       	sbci	r31, 0xFC	; 252
     c18:	20 83       	st	Z, r18
     c1a:	01 c0       	rjmp	.+2      	; 0xc1e <__vector_25+0x40>
     c1c:	82 e0       	ldi	r24, 0x02	; 2
     c1e:	90 91 75 03 	lds	r25, 0x0375	; 0x800375 <UART0_LastRxError>
     c22:	89 2b       	or	r24, r25
     c24:	80 93 75 03 	sts	0x0375, r24	; 0x800375 <UART0_LastRxError>
     c28:	ff 91       	pop	r31
     c2a:	ef 91       	pop	r30
     c2c:	9f 91       	pop	r25
     c2e:	8f 91       	pop	r24
     c30:	2f 91       	pop	r18
     c32:	0f 90       	pop	r0
     c34:	0b be       	out	0x3b, r0	; 59
     c36:	0f 90       	pop	r0
     c38:	0f be       	out	0x3f, r0	; 63
     c3a:	0f 90       	pop	r0
     c3c:	1f 90       	pop	r1
     c3e:	18 95       	reti

00000c40 <__vector_26>:
     c40:	1f 92       	push	r1
     c42:	0f 92       	push	r0
     c44:	0f b6       	in	r0, 0x3f	; 63
     c46:	0f 92       	push	r0
     c48:	11 24       	eor	r1, r1
     c4a:	0b b6       	in	r0, 0x3b	; 59
     c4c:	0f 92       	push	r0
     c4e:	8f 93       	push	r24
     c50:	9f 93       	push	r25
     c52:	ef 93       	push	r30
     c54:	ff 93       	push	r31
     c56:	90 91 79 03 	lds	r25, 0x0379	; 0x800379 <UART0_TxHead>
     c5a:	80 91 78 03 	lds	r24, 0x0378	; 0x800378 <UART0_TxTail>
     c5e:	98 17       	cp	r25, r24
     c60:	61 f0       	breq	.+24     	; 0xc7a <__vector_26+0x3a>
     c62:	e0 91 78 03 	lds	r30, 0x0378	; 0x800378 <UART0_TxTail>
     c66:	ef 5f       	subi	r30, 0xFF	; 255
     c68:	e0 93 78 03 	sts	0x0378, r30	; 0x800378 <UART0_TxTail>
     c6c:	f0 e0       	ldi	r31, 0x00	; 0
     c6e:	e6 58       	subi	r30, 0x86	; 134
     c70:	fc 4f       	sbci	r31, 0xFC	; 252
     c72:	80 81       	ld	r24, Z
     c74:	80 93 c6 00 	sts	0x00C6, r24	; 0x8000c6 <__TEXT_REGION_LENGTH__+0x7c00c6>
     c78:	05 c0       	rjmp	.+10     	; 0xc84 <__vector_26+0x44>
     c7a:	e1 ec       	ldi	r30, 0xC1	; 193
     c7c:	f0 e0       	ldi	r31, 0x00	; 0
     c7e:	80 81       	ld	r24, Z
     c80:	8f 7d       	andi	r24, 0xDF	; 223
     c82:	80 83       	st	Z, r24
     c84:	ff 91       	pop	r31
     c86:	ef 91       	pop	r30
     c88:	9f 91       	pop	r25
     c8a:	8f 91       	pop	r24
     c8c:	0f 90       	pop	r0
     c8e:	0b be       	out	0x3b, r0	; 59
     c90:	0f 90       	pop	r0
     c92:	0f be       	out	0x3f, r0	; 63
     c94:	0f 90       	pop	r0
     c96:	1f 90       	pop	r1
     c98:	18 95       	reti

00000c9a <__vector_36>:
     c9a:	1f 92       	push	r1
     c9c:	0f 92       	push	r0
     c9e:	0f b6       	in	r0, 0x3f	; 63
     ca0:	0f 92       	push	r0
     ca2:	11 24       	eor	r1, r1
     ca4:	0b b6       	in	r0, 0x3b	; 59
     ca6:	0f 92       	push	r0
     ca8:	2f 93       	push	r18
     caa:	8f 93       	push	r24
     cac:	9f 93       	push	r25
     cae:	ef 93       	push	r30
     cb0:	ff 93       	push	r31
     cb2:	80 91 c8 00 	lds	r24, 0x00C8	; 0x8000c8 <__TEXT_REGION_LENGTH__+0x7c00c8>
     cb6:	20 91 ce 00 	lds	r18, 0x00CE	; 0x8000ce <__TEXT_REGION_LENGTH__+0x7c00ce>
     cba:	8c 71       	andi	r24, 0x1C	; 28
     cbc:	e0 91 32 02 	lds	r30, 0x0232	; 0x800232 <UART1_RxHead>
     cc0:	ef 5f       	subi	r30, 0xFF	; 255
     cc2:	90 91 31 02 	lds	r25, 0x0231	; 0x800231 <UART1_RxTail>
     cc6:	e9 17       	cp	r30, r25
     cc8:	39 f0       	breq	.+14     	; 0xcd8 <__vector_36+0x3e>
     cca:	e0 93 32 02 	sts	0x0232, r30	; 0x800232 <UART1_RxHead>
     cce:	f0 e0       	ldi	r31, 0x00	; 0
     cd0:	eb 5c       	subi	r30, 0xCB	; 203
     cd2:	fd 4f       	sbci	r31, 0xFD	; 253
     cd4:	20 83       	st	Z, r18
     cd6:	01 c0       	rjmp	.+2      	; 0xcda <__vector_36+0x40>
     cd8:	82 e0       	ldi	r24, 0x02	; 2
     cda:	90 91 30 02 	lds	r25, 0x0230	; 0x800230 <UART1_LastRxError>
     cde:	89 2b       	or	r24, r25
     ce0:	80 93 30 02 	sts	0x0230, r24	; 0x800230 <UART1_LastRxError>
     ce4:	ff 91       	pop	r31
     ce6:	ef 91       	pop	r30
     ce8:	9f 91       	pop	r25
     cea:	8f 91       	pop	r24
     cec:	2f 91       	pop	r18
     cee:	0f 90       	pop	r0
     cf0:	0b be       	out	0x3b, r0	; 59
     cf2:	0f 90       	pop	r0
     cf4:	0f be       	out	0x3f, r0	; 63
     cf6:	0f 90       	pop	r0
     cf8:	1f 90       	pop	r1
     cfa:	18 95       	reti

00000cfc <__vector_37>:
     cfc:	1f 92       	push	r1
     cfe:	0f 92       	push	r0
     d00:	0f b6       	in	r0, 0x3f	; 63
     d02:	0f 92       	push	r0
     d04:	11 24       	eor	r1, r1
     d06:	0b b6       	in	r0, 0x3b	; 59
     d08:	0f 92       	push	r0
     d0a:	8f 93       	push	r24
     d0c:	9f 93       	push	r25
     d0e:	ef 93       	push	r30
     d10:	ff 93       	push	r31
     d12:	90 91 34 02 	lds	r25, 0x0234	; 0x800234 <UART1_TxHead>
     d16:	80 91 33 02 	lds	r24, 0x0233	; 0x800233 <UART1_TxTail>
     d1a:	98 17       	cp	r25, r24
     d1c:	69 f0       	breq	.+26     	; 0xd38 <__vector_37+0x3c>
     d1e:	e0 91 33 02 	lds	r30, 0x0233	; 0x800233 <UART1_TxTail>
     d22:	ef 5f       	subi	r30, 0xFF	; 255
     d24:	ef 73       	andi	r30, 0x3F	; 63
     d26:	e0 93 33 02 	sts	0x0233, r30	; 0x800233 <UART1_TxTail>
     d2a:	f0 e0       	ldi	r31, 0x00	; 0
     d2c:	eb 5c       	subi	r30, 0xCB	; 203
     d2e:	fc 4f       	sbci	r31, 0xFC	; 252
     d30:	80 81       	ld	r24, Z
     d32:	80 93 ce 00 	sts	0x00CE, r24	; 0x8000ce <__TEXT_REGION_LENGTH__+0x7c00ce>
     d36:	05 c0       	rjmp	.+10     	; 0xd42 <__vector_37+0x46>
     d38:	e9 ec       	ldi	r30, 0xC9	; 201
     d3a:	f0 e0       	ldi	r31, 0x00	; 0
     d3c:	80 81       	ld	r24, Z
     d3e:	8f 7d       	andi	r24, 0xDF	; 223
     d40:	80 83       	st	Z, r24
     d42:	ff 91       	pop	r31
     d44:	ef 91       	pop	r30
     d46:	9f 91       	pop	r25
     d48:	8f 91       	pop	r24
     d4a:	0f 90       	pop	r0
     d4c:	0b be       	out	0x3b, r0	; 59
     d4e:	0f 90       	pop	r0
     d50:	0f be       	out	0x3f, r0	; 63
     d52:	0f 90       	pop	r0
     d54:	1f 90       	pop	r1
     d56:	18 95       	reti

00000d58 <__vector_51>:
     d58:	1f 92       	push	r1
     d5a:	0f 92       	push	r0
     d5c:	0f b6       	in	r0, 0x3f	; 63
     d5e:	0f 92       	push	r0
     d60:	11 24       	eor	r1, r1
     d62:	0b b6       	in	r0, 0x3b	; 59
     d64:	0f 92       	push	r0
     d66:	2f 93       	push	r18
     d68:	8f 93       	push	r24
     d6a:	9f 93       	push	r25
     d6c:	ef 93       	push	r30
     d6e:	ff 93       	push	r31
     d70:	80 91 d0 00 	lds	r24, 0x00D0	; 0x8000d0 <__TEXT_REGION_LENGTH__+0x7c00d0>
     d74:	20 91 d6 00 	lds	r18, 0x00D6	; 0x8000d6 <__TEXT_REGION_LENGTH__+0x7c00d6>
     d78:	8c 71       	andi	r24, 0x1C	; 28
     d7a:	e0 91 2d 02 	lds	r30, 0x022D	; 0x80022d <UART2_RxHead>
     d7e:	ef 5f       	subi	r30, 0xFF	; 255
     d80:	90 91 2c 02 	lds	r25, 0x022C	; 0x80022c <UART2_RxTail>
     d84:	e9 17       	cp	r30, r25
     d86:	39 f0       	breq	.+14     	; 0xd96 <__vector_51+0x3e>
     d88:	e0 93 2d 02 	sts	0x022D, r30	; 0x80022d <UART2_RxHead>
     d8c:	f0 e0       	ldi	r31, 0x00	; 0
     d8e:	e0 5d       	subi	r30, 0xD0	; 208
     d90:	fd 4f       	sbci	r31, 0xFD	; 253
     d92:	20 83       	st	Z, r18
     d94:	01 c0       	rjmp	.+2      	; 0xd98 <__vector_51+0x40>
     d96:	82 e0       	ldi	r24, 0x02	; 2
     d98:	90 91 2b 02 	lds	r25, 0x022B	; 0x80022b <UART2_LastRxError>
     d9c:	89 2b       	or	r24, r25
     d9e:	80 93 2b 02 	sts	0x022B, r24	; 0x80022b <UART2_LastRxError>
     da2:	ff 91       	pop	r31
     da4:	ef 91       	pop	r30
     da6:	9f 91       	pop	r25
     da8:	8f 91       	pop	r24
     daa:	2f 91       	pop	r18
     dac:	0f 90       	pop	r0
     dae:	0b be       	out	0x3b, r0	; 59
     db0:	0f 90       	pop	r0
     db2:	0f be       	out	0x3f, r0	; 63
     db4:	0f 90       	pop	r0
     db6:	1f 90       	pop	r1
     db8:	18 95       	reti

00000dba <__vector_52>:
     dba:	1f 92       	push	r1
     dbc:	0f 92       	push	r0
     dbe:	0f b6       	in	r0, 0x3f	; 63
     dc0:	0f 92       	push	r0
     dc2:	11 24       	eor	r1, r1
     dc4:	0b b6       	in	r0, 0x3b	; 59
     dc6:	0f 92       	push	r0
     dc8:	8f 93       	push	r24
     dca:	9f 93       	push	r25
     dcc:	ef 93       	push	r30
     dce:	ff 93       	push	r31
     dd0:	90 91 2f 02 	lds	r25, 0x022F	; 0x80022f <UART2_TxHead>
     dd4:	80 91 2e 02 	lds	r24, 0x022E	; 0x80022e <UART2_TxTail>
     dd8:	98 17       	cp	r25, r24
     dda:	61 f0       	breq	.+24     	; 0xdf4 <__vector_52+0x3a>
     ddc:	e0 91 2e 02 	lds	r30, 0x022E	; 0x80022e <UART2_TxTail>
     de0:	ef 5f       	subi	r30, 0xFF	; 255
     de2:	e0 93 2e 02 	sts	0x022E, r30	; 0x80022e <UART2_TxTail>
     de6:	f0 e0       	ldi	r31, 0x00	; 0
     de8:	e0 5d       	subi	r30, 0xD0	; 208
     dea:	fd 4f       	sbci	r31, 0xFD	; 253
     dec:	80 81       	ld	r24, Z
     dee:	80 93 d6 00 	sts	0x00D6, r24	; 0x8000d6 <__TEXT_REGION_LENGTH__+0x7c00d6>
     df2:	05 c0       	rjmp	.+10     	; 0xdfe <__vector_52+0x44>
     df4:	e1 ed       	ldi	r30, 0xD1	; 209
     df6:	f0 e0       	ldi	r31, 0x00	; 0
     df8:	80 81       	ld	r24, Z
     dfa:	8f 7d       	andi	r24, 0xDF	; 223
     dfc:	80 83       	st	Z, r24
     dfe:	ff 91       	pop	r31
     e00:	ef 91       	pop	r30
     e02:	9f 91       	pop	r25
     e04:	8f 91       	pop	r24
     e06:	0f 90       	pop	r0
     e08:	0b be       	out	0x3b, r0	; 59
     e0a:	0f 90       	pop	r0
     e0c:	0f be       	out	0x3f, r0	; 63
     e0e:	0f 90       	pop	r0
     e10:	1f 90       	pop	r1
     e12:	18 95       	reti

00000e14 <__vector_54>:
     e14:	1f 92       	push	r1
     e16:	0f 92       	push	r0
     e18:	0f b6       	in	r0, 0x3f	; 63
     e1a:	0f 92       	push	r0
     e1c:	11 24       	eor	r1, r1
     e1e:	0b b6       	in	r0, 0x3b	; 59
     e20:	0f 92       	push	r0
     e22:	2f 93       	push	r18
     e24:	8f 93       	push	r24
     e26:	9f 93       	push	r25
     e28:	ef 93       	push	r30
     e2a:	ff 93       	push	r31
     e2c:	80 91 30 01 	lds	r24, 0x0130	; 0x800130 <__TEXT_REGION_LENGTH__+0x7c0130>
     e30:	20 91 36 01 	lds	r18, 0x0136	; 0x800136 <__TEXT_REGION_LENGTH__+0x7c0136>
     e34:	8c 71       	andi	r24, 0x1C	; 28
     e36:	e0 91 28 02 	lds	r30, 0x0228	; 0x800228 <UART3_RxHead>
     e3a:	ef 5f       	subi	r30, 0xFF	; 255
     e3c:	90 91 27 02 	lds	r25, 0x0227	; 0x800227 <UART3_RxTail>
     e40:	e9 17       	cp	r30, r25
     e42:	39 f0       	breq	.+14     	; 0xe52 <__vector_54+0x3e>
     e44:	e0 93 28 02 	sts	0x0228, r30	; 0x800228 <UART3_RxHead>
     e48:	f0 e0       	ldi	r31, 0x00	; 0
     e4a:	e5 5d       	subi	r30, 0xD5	; 213
     e4c:	fd 4f       	sbci	r31, 0xFD	; 253
     e4e:	20 83       	st	Z, r18
     e50:	01 c0       	rjmp	.+2      	; 0xe54 <__vector_54+0x40>
     e52:	82 e0       	ldi	r24, 0x02	; 2
     e54:	90 91 26 02 	lds	r25, 0x0226	; 0x800226 <UART3_LastRxError>
     e58:	89 2b       	or	r24, r25
     e5a:	80 93 26 02 	sts	0x0226, r24	; 0x800226 <UART3_LastRxError>
     e5e:	ff 91       	pop	r31
     e60:	ef 91       	pop	r30
     e62:	9f 91       	pop	r25
     e64:	8f 91       	pop	r24
     e66:	2f 91       	pop	r18
     e68:	0f 90       	pop	r0
     e6a:	0b be       	out	0x3b, r0	; 59
     e6c:	0f 90       	pop	r0
     e6e:	0f be       	out	0x3f, r0	; 63
     e70:	0f 90       	pop	r0
     e72:	1f 90       	pop	r1
     e74:	18 95       	reti

00000e76 <__vector_55>:
     e76:	1f 92       	push	r1
     e78:	0f 92       	push	r0
     e7a:	0f b6       	in	r0, 0x3f	; 63
     e7c:	0f 92       	push	r0
     e7e:	11 24       	eor	r1, r1
     e80:	0b b6       	in	r0, 0x3b	; 59
     e82:	0f 92       	push	r0
     e84:	8f 93       	push	r24
     e86:	9f 93       	push	r25
     e88:	ef 93       	push	r30
     e8a:	ff 93       	push	r31
     e8c:	90 91 2a 02 	lds	r25, 0x022A	; 0x80022a <UART3_TxHead>
     e90:	80 91 29 02 	lds	r24, 0x0229	; 0x800229 <UART3_TxTail>
     e94:	98 17       	cp	r25, r24
     e96:	61 f0       	breq	.+24     	; 0xeb0 <__vector_55+0x3a>
     e98:	e0 91 29 02 	lds	r30, 0x0229	; 0x800229 <UART3_TxTail>
     e9c:	ef 5f       	subi	r30, 0xFF	; 255
     e9e:	e0 93 29 02 	sts	0x0229, r30	; 0x800229 <UART3_TxTail>
     ea2:	f0 e0       	ldi	r31, 0x00	; 0
     ea4:	e5 5d       	subi	r30, 0xD5	; 213
     ea6:	fd 4f       	sbci	r31, 0xFD	; 253
     ea8:	80 81       	ld	r24, Z
     eaa:	80 93 36 01 	sts	0x0136, r24	; 0x800136 <__TEXT_REGION_LENGTH__+0x7c0136>
     eae:	05 c0       	rjmp	.+10     	; 0xeba <__vector_55+0x44>
     eb0:	e1 e3       	ldi	r30, 0x31	; 49
     eb2:	f1 e0       	ldi	r31, 0x01	; 1
     eb4:	80 81       	ld	r24, Z
     eb6:	8f 7d       	andi	r24, 0xDF	; 223
     eb8:	80 83       	st	Z, r24
     eba:	ff 91       	pop	r31
     ebc:	ef 91       	pop	r30
     ebe:	9f 91       	pop	r25
     ec0:	8f 91       	pop	r24
     ec2:	0f 90       	pop	r0
     ec4:	0b be       	out	0x3b, r0	; 59
     ec6:	0f 90       	pop	r0
     ec8:	0f be       	out	0x3f, r0	; 63
     eca:	0f 90       	pop	r0
     ecc:	1f 90       	pop	r1
     ece:	18 95       	reti

00000ed0 <__vector_21>:
     ed0:	1f 92       	push	r1
     ed2:	0f 92       	push	r0
     ed4:	0f b6       	in	r0, 0x3f	; 63
     ed6:	0f 92       	push	r0
     ed8:	11 24       	eor	r1, r1
     eda:	8f 93       	push	r24
     edc:	9f 93       	push	r25
     ede:	af 93       	push	r26
     ee0:	bf 93       	push	r27
     ee2:	80 91 7f 03 	lds	r24, 0x037F	; 0x80037f <os_coarseSystemTime>
     ee6:	90 91 80 03 	lds	r25, 0x0380	; 0x800380 <os_coarseSystemTime+0x1>
     eea:	a0 91 81 03 	lds	r26, 0x0381	; 0x800381 <os_coarseSystemTime+0x2>
     eee:	b0 91 82 03 	lds	r27, 0x0382	; 0x800382 <os_coarseSystemTime+0x3>
     ef2:	01 96       	adiw	r24, 0x01	; 1
     ef4:	a1 1d       	adc	r26, r1
     ef6:	b1 1d       	adc	r27, r1
     ef8:	80 93 7f 03 	sts	0x037F, r24	; 0x80037f <os_coarseSystemTime>
     efc:	90 93 80 03 	sts	0x0380, r25	; 0x800380 <os_coarseSystemTime+0x1>
     f00:	a0 93 81 03 	sts	0x0381, r26	; 0x800381 <os_coarseSystemTime+0x2>
     f04:	b0 93 82 03 	sts	0x0382, r27	; 0x800382 <os_coarseSystemTime+0x3>
     f08:	bf 91       	pop	r27
     f0a:	af 91       	pop	r26
     f0c:	9f 91       	pop	r25
     f0e:	8f 91       	pop	r24
     f10:	0f 90       	pop	r0
     f12:	0f be       	out	0x3f, r0	; 63
     f14:	0f 90       	pop	r0
     f16:	1f 90       	pop	r1
     f18:	18 95       	reti

00000f1a <initSystemTime>:
     f1a:	10 92 7f 03 	sts	0x037F, r1	; 0x80037f <os_coarseSystemTime>
     f1e:	10 92 80 03 	sts	0x0380, r1	; 0x800380 <os_coarseSystemTime+0x1>
     f22:	10 92 81 03 	sts	0x0381, r1	; 0x800381 <os_coarseSystemTime+0x2>
     f26:	10 92 82 03 	sts	0x0382, r1	; 0x800382 <os_coarseSystemTime+0x3>
     f2a:	85 b5       	in	r24, 0x25	; 37
     f2c:	81 60       	ori	r24, 0x01	; 1
     f2e:	85 bd       	out	0x25, r24	; 37
     f30:	85 b5       	in	r24, 0x25	; 37
     f32:	82 60       	ori	r24, 0x02	; 2
     f34:	85 bd       	out	0x25, r24	; 37
     f36:	85 b5       	in	r24, 0x25	; 37
     f38:	8b 7f       	andi	r24, 0xFB	; 251
     f3a:	85 bd       	out	0x25, r24	; 37
     f3c:	84 b5       	in	r24, 0x24	; 36
     f3e:	82 60       	ori	r24, 0x02	; 2
     f40:	84 bd       	out	0x24, r24	; 36
     f42:	89 ef       	ldi	r24, 0xF9	; 249
     f44:	87 bd       	out	0x27, r24	; 39
     f46:	ee e6       	ldi	r30, 0x6E	; 110
     f48:	f0 e0       	ldi	r31, 0x00	; 0
     f4a:	80 81       	ld	r24, Z
     f4c:	82 60       	ori	r24, 0x02	; 2
     f4e:	80 83       	st	Z, r24
     f50:	08 95       	ret

00000f52 <getSystemTime_ms>:
     f52:	0f b6       	in	r0, 0x3f	; 63
     f54:	07 fc       	sbrc	r0, 7
     f56:	18 c0       	rjmp	.+48     	; 0xf88 <getSystemTime_ms+0x36>
     f58:	a9 9b       	sbis	0x15, 1	; 21
     f5a:	16 c0       	rjmp	.+44     	; 0xf88 <getSystemTime_ms+0x36>
     f5c:	85 b3       	in	r24, 0x15	; 21
     f5e:	82 60       	ori	r24, 0x02	; 2
     f60:	85 bb       	out	0x15, r24	; 21
     f62:	80 91 7f 03 	lds	r24, 0x037F	; 0x80037f <os_coarseSystemTime>
     f66:	90 91 80 03 	lds	r25, 0x0380	; 0x800380 <os_coarseSystemTime+0x1>
     f6a:	a0 91 81 03 	lds	r26, 0x0381	; 0x800381 <os_coarseSystemTime+0x2>
     f6e:	b0 91 82 03 	lds	r27, 0x0382	; 0x800382 <os_coarseSystemTime+0x3>
     f72:	01 96       	adiw	r24, 0x01	; 1
     f74:	a1 1d       	adc	r26, r1
     f76:	b1 1d       	adc	r27, r1
     f78:	80 93 7f 03 	sts	0x037F, r24	; 0x80037f <os_coarseSystemTime>
     f7c:	90 93 80 03 	sts	0x0380, r25	; 0x800380 <os_coarseSystemTime+0x1>
     f80:	a0 93 81 03 	sts	0x0381, r26	; 0x800381 <os_coarseSystemTime+0x2>
     f84:	b0 93 82 03 	sts	0x0382, r27	; 0x800382 <os_coarseSystemTime+0x3>
     f88:	8f b7       	in	r24, 0x3f	; 63
     f8a:	28 2f       	mov	r18, r24
     f8c:	22 1f       	adc	r18, r18
     f8e:	22 27       	eor	r18, r18
     f90:	22 1f       	adc	r18, r18
     f92:	f8 94       	cli
     f94:	60 91 7f 03 	lds	r22, 0x037F	; 0x80037f <os_coarseSystemTime>
     f98:	70 91 80 03 	lds	r23, 0x0380	; 0x800380 <os_coarseSystemTime+0x1>
     f9c:	80 91 81 03 	lds	r24, 0x0381	; 0x800381 <os_coarseSystemTime+0x2>
     fa0:	90 91 82 03 	lds	r25, 0x0382	; 0x800382 <os_coarseSystemTime+0x3>
     fa4:	22 23       	and	r18, r18
     fa6:	09 f0       	breq	.+2      	; 0xfaa <getSystemTime_ms+0x58>
     fa8:	78 94       	sei
     faa:	08 95       	ret

00000fac <delayMs>:
     fac:	cf 92       	push	r12
     fae:	df 92       	push	r13
     fb0:	ef 92       	push	r14
     fb2:	ff 92       	push	r15
     fb4:	0f 93       	push	r16
     fb6:	1f 93       	push	r17
     fb8:	cf 93       	push	r28
     fba:	df 93       	push	r29
     fbc:	00 97       	sbiw	r24, 0x00	; 0
     fbe:	d1 f0       	breq	.+52     	; 0xff4 <delayMs+0x48>
     fc0:	ec 01       	movw	r28, r24
     fc2:	c7 df       	rcall	.-114    	; 0xf52 <getSystemTime_ms>
     fc4:	6b 01       	movw	r12, r22
     fc6:	7c 01       	movw	r14, r24
     fc8:	06 c0       	rjmp	.+12     	; 0xfd6 <delayMs+0x2a>
	#else
		//round up by default
		__ticks_dc = (uint32_t)(ceil(fabs(__tmp)));
	#endif

	__builtin_avr_delay_cycles(__ticks_dc);
     fca:	8f e8       	ldi	r24, 0x8F	; 143
     fcc:	91 e0       	ldi	r25, 0x01	; 1
     fce:	01 97       	sbiw	r24, 0x01	; 1
     fd0:	f1 f7       	brne	.-4      	; 0xfce <delayMs+0x22>
     fd2:	00 c0       	rjmp	.+0      	; 0xfd4 <delayMs+0x28>
     fd4:	00 00       	nop
     fd6:	bd df       	rcall	.-134    	; 0xf52 <getSystemTime_ms>
     fd8:	dc 01       	movw	r26, r24
     fda:	cb 01       	movw	r24, r22
     fdc:	8c 19       	sub	r24, r12
     fde:	9d 09       	sbc	r25, r13
     fe0:	ae 09       	sbc	r26, r14
     fe2:	bf 09       	sbc	r27, r15
     fe4:	8e 01       	movw	r16, r28
     fe6:	20 e0       	ldi	r18, 0x00	; 0
     fe8:	30 e0       	ldi	r19, 0x00	; 0
     fea:	80 17       	cp	r24, r16
     fec:	91 07       	cpc	r25, r17
     fee:	a2 07       	cpc	r26, r18
     ff0:	b3 07       	cpc	r27, r19
     ff2:	58 f3       	brcs	.-42     	; 0xfca <delayMs+0x1e>
     ff4:	df 91       	pop	r29
     ff6:	cf 91       	pop	r28
     ff8:	1f 91       	pop	r17
     ffa:	0f 91       	pop	r16
     ffc:	ff 90       	pop	r15
     ffe:	ef 90       	pop	r14
    1000:	df 90       	pop	r13
    1002:	cf 90       	pop	r12
    1004:	08 95       	ret

00001006 <assertPstr>:
    1006:	cf 93       	push	r28
    1008:	df 93       	push	r29
    100a:	cd b7       	in	r28, 0x3d	; 61
    100c:	de b7       	in	r29, 0x3e	; 62
    100e:	9f 81       	ldd	r25, Y+7	; 0x07
    1010:	28 85       	ldd	r18, Y+8	; 0x08
    1012:	8e 81       	ldd	r24, Y+6	; 0x06
    1014:	81 11       	cpse	r24, r1
    1016:	0c c0       	rjmp	.+24     	; 0x1030 <assertPstr+0x2a>
    1018:	ae 01       	movw	r20, r28
    101a:	47 5f       	subi	r20, 0xF7	; 247
    101c:	5f 4f       	sbci	r21, 0xFF	; 255
    101e:	5f 93       	push	r21
    1020:	4f 93       	push	r20
    1022:	2f 93       	push	r18
    1024:	9f 93       	push	r25
    1026:	6a d0       	rcall	.+212    	; 0x10fc <os_errorPstr>
    1028:	0f 90       	pop	r0
    102a:	0f 90       	pop	r0
    102c:	0f 90       	pop	r0
    102e:	0f 90       	pop	r0
    1030:	df 91       	pop	r29
    1032:	cf 91       	pop	r28
    1034:	08 95       	ret

00001036 <main>:
    1036:	21 d0       	rcall	.+66     	; 0x107a <os_init>
    1038:	88 e5       	ldi	r24, 0x58	; 88
    103a:	92 e0       	ldi	r25, 0x02	; 2
    103c:	b7 df       	rcall	.-146    	; 0xfac <delayMs>
    103e:	79 db       	rcall	.-2318   	; 0x732 <lcd_clear>
    1040:	3c d1       	rcall	.+632    	; 0x12ba <os_startScheduler>
    1042:	81 e0       	ldi	r24, 0x01	; 1
    1044:	90 e0       	ldi	r25, 0x00	; 0
    1046:	08 95       	ret

00001048 <os_initTimer>:
    1048:	e0 eb       	ldi	r30, 0xB0	; 176
    104a:	f0 e0       	ldi	r31, 0x00	; 0
    104c:	80 81       	ld	r24, Z
    104e:	82 60       	ori	r24, 0x02	; 2
    1050:	80 83       	st	Z, r24
    1052:	e1 eb       	ldi	r30, 0xB1	; 177
    1054:	f0 e0       	ldi	r31, 0x00	; 0
    1056:	80 81       	ld	r24, Z
    1058:	84 60       	ori	r24, 0x04	; 4
    105a:	80 83       	st	Z, r24
    105c:	80 81       	ld	r24, Z
    105e:	82 60       	ori	r24, 0x02	; 2
    1060:	80 83       	st	Z, r24
    1062:	80 81       	ld	r24, Z
    1064:	81 60       	ori	r24, 0x01	; 1
    1066:	80 83       	st	Z, r24
    1068:	e0 e7       	ldi	r30, 0x70	; 112
    106a:	f0 e0       	ldi	r31, 0x00	; 0
    106c:	80 81       	ld	r24, Z
    106e:	82 60       	ori	r24, 0x02	; 2
    1070:	80 83       	st	Z, r24
    1072:	8c e3       	ldi	r24, 0x3C	; 60
    1074:	80 93 b3 00 	sts	0x00B3, r24	; 0x8000b3 <__TEXT_REGION_LENGTH__+0x7c00b3>
    1078:	08 95       	ret

0000107a <os_init>:
    107a:	4f df       	rcall	.-354    	; 0xf1a <initSystemTime>
    107c:	e5 df       	rcall	.-54     	; 0x1048 <os_initTimer>
    107e:	0e dd       	rcall	.-1508   	; 0xa9c <stopWatch_init>
    1080:	13 db       	rcall	.-2522   	; 0x6a8 <lcd_init>
    1082:	59 dd       	rcall	.-1358   	; 0xb36 <terminal_init>
    1084:	63 db       	rcall	.-2362   	; 0x74c <lcd_displayOn>
    1086:	55 db       	rcall	.-2390   	; 0x732 <lcd_clear>
    1088:	84 e7       	ldi	r24, 0x74	; 116
    108a:	92 e0       	ldi	r25, 0x02	; 2
    108c:	de db       	rcall	.-2116   	; 0x84a <lcd_writeProgString>
    108e:	8e e3       	ldi	r24, 0x3E	; 62
    1090:	92 e0       	ldi	r25, 0x02	; 2
    1092:	63 dd       	rcall	.-1338   	; 0xb5a <terminal_writeProgString>
    1094:	8d e2       	ldi	r24, 0x2D	; 45
    1096:	92 e0       	ldi	r25, 0x02	; 2
    1098:	9f 93       	push	r25
    109a:	8f 93       	push	r24
    109c:	84 e2       	ldi	r24, 0x24	; 36
    109e:	92 e0       	ldi	r25, 0x02	; 2
    10a0:	9f 93       	push	r25
    10a2:	8f 93       	push	r24
    10a4:	6e dd       	rcall	.-1316   	; 0xb82 <terminal_log_printf_p>
    10a6:	83 e0       	ldi	r24, 0x03	; 3
    10a8:	8f 93       	push	r24
    10aa:	88 ee       	ldi	r24, 0xE8	; 232
    10ac:	8f 93       	push	r24
    10ae:	8c e1       	ldi	r24, 0x1C	; 28
    10b0:	92 e0       	ldi	r25, 0x02	; 2
    10b2:	9f 93       	push	r25
    10b4:	8f 93       	push	r24
    10b6:	86 e0       	ldi	r24, 0x06	; 6
    10b8:	92 e0       	ldi	r25, 0x02	; 2
    10ba:	9f 93       	push	r25
    10bc:	8f 93       	push	r24
    10be:	8d ef       	ldi	r24, 0xFD	; 253
    10c0:	91 e0       	ldi	r25, 0x01	; 1
    10c2:	9f 93       	push	r25
    10c4:	8f 93       	push	r24
    10c6:	5d dd       	rcall	.-1350   	; 0xb82 <terminal_log_printf_p>
    10c8:	89 ec       	ldi	r24, 0xC9	; 201
    10ca:	91 e0       	ldi	r25, 0x01	; 1
    10cc:	46 dd       	rcall	.-1396   	; 0xb5a <terminal_writeProgString>
    10ce:	88 ea       	ldi	r24, 0xA8	; 168
    10d0:	91 e0       	ldi	r25, 0x01	; 1
    10d2:	9f 93       	push	r25
    10d4:	8f 93       	push	r24
    10d6:	81 e0       	ldi	r24, 0x01	; 1
    10d8:	2c e1       	ldi	r18, 0x1C	; 28
    10da:	34 e0       	ldi	r19, 0x04	; 4
    10dc:	28 3e       	cpi	r18, 0xE8	; 232
    10de:	35 40       	sbci	r19, 0x05	; 5
    10e0:	08 f0       	brcs	.+2      	; 0x10e4 <os_init+0x6a>
    10e2:	80 e0       	ldi	r24, 0x00	; 0
    10e4:	8f 93       	push	r24
    10e6:	8f df       	rcall	.-226    	; 0x1006 <assertPstr>
    10e8:	0d d2       	rcall	.+1050   	; 0x1504 <os_initScheduler>
    10ea:	8d b7       	in	r24, 0x3d	; 61
    10ec:	9e b7       	in	r25, 0x3e	; 62
    10ee:	0f 96       	adiw	r24, 0x0f	; 15
    10f0:	0f b6       	in	r0, 0x3f	; 63
    10f2:	f8 94       	cli
    10f4:	9e bf       	out	0x3e, r25	; 62
    10f6:	0f be       	out	0x3f, r0	; 63
    10f8:	8d bf       	out	0x3d, r24	; 61
    10fa:	08 95       	ret

000010fc <os_errorPstr>:
    10fc:	cf 93       	push	r28
    10fe:	df 93       	push	r29
    1100:	cd b7       	in	r28, 0x3d	; 61
    1102:	de b7       	in	r29, 0x3e	; 62
    1104:	1e 81       	ldd	r17, Y+6	; 0x06
    1106:	0f 81       	ldd	r16, Y+7	; 0x07
    1108:	f8 94       	cli
    110a:	8f ef       	ldi	r24, 0xFF	; 255
    110c:	91 e2       	ldi	r25, 0x21	; 33
    110e:	9e bf       	out	0x3e, r25	; 62
    1110:	8d bf       	out	0x3d, r24	; 61
    1112:	0f db       	rcall	.-2530   	; 0x732 <lcd_clear>
    1114:	ce 01       	movw	r24, r28
    1116:	08 96       	adiw	r24, 0x08	; 8
    1118:	9f 93       	push	r25
    111a:	8f 93       	push	r24
    111c:	0f 93       	push	r16
    111e:	1f 93       	push	r17
    1120:	86 da       	rcall	.-2804   	; 0x62e <lcd_printf_p>
    1122:	ce 01       	movw	r24, r28
    1124:	08 96       	adiw	r24, 0x08	; 8
    1126:	9f 93       	push	r25
    1128:	8f 93       	push	r24
    112a:	0f 93       	push	r16
    112c:	1f 93       	push	r17
    112e:	8f e9       	ldi	r24, 0x9F	; 159
    1130:	91 e0       	ldi	r25, 0x01	; 1
    1132:	9f 93       	push	r25
    1134:	8f 93       	push	r24
    1136:	25 dd       	rcall	.-1462   	; 0xb82 <terminal_log_printf_p>
    1138:	0f b6       	in	r0, 0x3f	; 63
    113a:	f8 94       	cli
    113c:	de bf       	out	0x3e, r29	; 62
    113e:	0f be       	out	0x3f, r0	; 63
    1140:	cd bf       	out	0x3d, r28	; 61
    1142:	04 db       	rcall	.-2552   	; 0x74c <lcd_displayOn>
	#else
		//round up by default
		__ticks_dc = (uint32_t)(ceil(fabs(__tmp)));
	#endif

	__builtin_avr_delay_cycles(__ticks_dc);
    1144:	9f ef       	ldi	r25, 0xFF	; 255
    1146:	2d e3       	ldi	r18, 0x3D	; 61
    1148:	89 e4       	ldi	r24, 0x49	; 73
    114a:	91 50       	subi	r25, 0x01	; 1
    114c:	20 40       	sbci	r18, 0x00	; 0
    114e:	80 40       	sbci	r24, 0x00	; 0
    1150:	e1 f7       	brne	.-8      	; 0x114a <os_errorPstr+0x4e>
    1152:	00 c0       	rjmp	.+0      	; 0x1154 <os_errorPstr+0x58>
    1154:	00 00       	nop
    1156:	fd da       	rcall	.-2566   	; 0x752 <lcd_displayOff>
    1158:	9f ef       	ldi	r25, 0xFF	; 255
    115a:	21 ee       	ldi	r18, 0xE1	; 225
    115c:	84 e0       	ldi	r24, 0x04	; 4
    115e:	91 50       	subi	r25, 0x01	; 1
    1160:	20 40       	sbci	r18, 0x00	; 0
    1162:	80 40       	sbci	r24, 0x00	; 0
    1164:	e1 f7       	brne	.-8      	; 0x115e <os_errorPstr+0x62>
    1166:	00 c0       	rjmp	.+0      	; 0x1168 <os_errorPstr+0x6c>
    1168:	00 00       	nop
    116a:	eb cf       	rjmp	.-42     	; 0x1142 <os_errorPstr+0x46>

0000116c <prog0>:
    116c:	c0 e0       	ldi	r28, 0x00	; 0
    116e:	d0 e0       	ldi	r29, 0x00	; 0
    1170:	06 c0       	rjmp	.+12     	; 0x117e <prog0+0x12>
    1172:	8e e2       	ldi	r24, 0x2E	; 46
    1174:	2a db       	rcall	.-2476   	; 0x7ca <lcd_writeChar>
    1176:	84 e6       	ldi	r24, 0x64	; 100
    1178:	90 e0       	ldi	r25, 0x00	; 0
    117a:	18 df       	rcall	.-464    	; 0xfac <delayMs>
    117c:	21 96       	adiw	r28, 0x01	; 1
    117e:	c3 30       	cpi	r28, 0x03	; 3
    1180:	d1 05       	cpc	r29, r1
    1182:	bc f3       	brlt	.-18     	; 0x1172 <prog0+0x6>
    1184:	d6 da       	rcall	.-2644   	; 0x732 <lcd_clear>
    1186:	84 e6       	ldi	r24, 0x64	; 100
    1188:	90 e0       	ldi	r25, 0x00	; 0
    118a:	10 df       	rcall	.-480    	; 0xfac <delayMs>
    118c:	ef cf       	rjmp	.-34     	; 0x116c <prog0>

0000118e <addressOfProgram>:
    118e:	bc 01       	movw	r22, r24
    1190:	99 0f       	add	r25, r25
    1192:	88 0b       	sbc	r24, r24
    1194:	99 0b       	sbc	r25, r25
    1196:	08 95       	ret

00001198 <os_checkAutostartProgram>:
    1198:	21 e0       	ldi	r18, 0x01	; 1
    119a:	30 e0       	ldi	r19, 0x00	; 0
    119c:	02 c0       	rjmp	.+4      	; 0x11a2 <os_checkAutostartProgram+0xa>
    119e:	22 0f       	add	r18, r18
    11a0:	33 1f       	adc	r19, r19
    11a2:	8a 95       	dec	r24
    11a4:	e2 f7       	brpl	.-8      	; 0x119e <os_checkAutostartProgram+0x6>
    11a6:	80 91 d3 03 	lds	r24, 0x03D3	; 0x8003d3 <os_autostart>
    11aa:	90 91 d4 03 	lds	r25, 0x03D4	; 0x8003d4 <os_autostart+0x1>
    11ae:	28 23       	and	r18, r24
    11b0:	39 23       	and	r19, r25
    11b2:	81 e0       	ldi	r24, 0x01	; 1
    11b4:	23 2b       	or	r18, r19
    11b6:	09 f4       	brne	.+2      	; 0x11ba <os_checkAutostartProgram+0x22>
    11b8:	80 e0       	ldi	r24, 0x00	; 0
    11ba:	08 95       	ret

000011bc <os_lookupProgramFunction>:
    11bc:	80 31       	cpi	r24, 0x10	; 16
    11be:	48 f4       	brcc	.+18     	; 0x11d2 <os_lookupProgramFunction+0x16>
    11c0:	e8 2f       	mov	r30, r24
    11c2:	f0 e0       	ldi	r31, 0x00	; 0
    11c4:	ee 0f       	add	r30, r30
    11c6:	ff 1f       	adc	r31, r31
    11c8:	ed 54       	subi	r30, 0x4D	; 77
    11ca:	fc 4f       	sbci	r31, 0xFC	; 252
    11cc:	80 81       	ld	r24, Z
    11ce:	91 81       	ldd	r25, Z+1	; 0x01
    11d0:	08 95       	ret
    11d2:	80 e0       	ldi	r24, 0x00	; 0
    11d4:	90 e0       	ldi	r25, 0x00	; 0
    11d6:	08 95       	ret

000011d8 <os_getProcessSlot>:
    11d8:	90 e0       	ldi	r25, 0x00	; 0
    11da:	9c 01       	movw	r18, r24
    11dc:	22 0f       	add	r18, r18
    11de:	33 1f       	adc	r19, r19
    11e0:	82 0f       	add	r24, r18
    11e2:	93 1f       	adc	r25, r19
    11e4:	88 0f       	add	r24, r24
    11e6:	99 1f       	adc	r25, r25
    11e8:	8d 57       	subi	r24, 0x7D	; 125
    11ea:	9c 4f       	sbci	r25, 0xFC	; 252
    11ec:	08 95       	ret

000011ee <os_getProgramSlot>:
    11ee:	90 e0       	ldi	r25, 0x00	; 0
    11f0:	88 0f       	add	r24, r24
    11f2:	99 1f       	adc	r25, r25
    11f4:	8d 54       	subi	r24, 0x4D	; 77
    11f6:	9c 4f       	sbci	r25, 0xFC	; 252
    11f8:	08 95       	ret

000011fa <os_getCurrentProc>:
    11fa:	80 91 7c 03 	lds	r24, 0x037C	; 0x80037c <currentProc>
    11fe:	08 95       	ret

00001200 <os_setSchedulingStrategy>:
    1200:	cf 93       	push	r28
    1202:	c8 2f       	mov	r28, r24
    1204:	9b d3       	rcall	.+1846   	; 0x193c <os_resetSchedulingInformation>
    1206:	c0 93 7b 03 	sts	0x037B, r28	; 0x80037b <currSchedStrat>
    120a:	cf 91       	pop	r28
    120c:	08 95       	ret

0000120e <os_getSchedulingStrategy>:
    120e:	80 91 7b 03 	lds	r24, 0x037B	; 0x80037b <currSchedStrat>
    1212:	08 95       	ret

00001214 <os_enterCriticalSection>:
    1214:	cf 93       	push	r28
    1216:	cf b7       	in	r28, 0x3f	; 63
    1218:	cc 1f       	adc	r28, r28
    121a:	cc 27       	eor	r28, r28
    121c:	cc 1f       	adc	r28, r28
    121e:	f8 94       	cli
    1220:	80 91 7a 03 	lds	r24, 0x037A	; 0x80037a <criticalSectionCount>
    1224:	8f 3f       	cpi	r24, 0xFF	; 255
    1226:	41 f4       	brne	.+16     	; 0x1238 <os_enterCriticalSection+0x24>
    1228:	86 e6       	ldi	r24, 0x66	; 102
    122a:	93 e0       	ldi	r25, 0x03	; 3
    122c:	9f 93       	push	r25
    122e:	8f 93       	push	r24
    1230:	65 df       	rcall	.-310    	; 0x10fc <os_errorPstr>
    1232:	0f 90       	pop	r0
    1234:	0f 90       	pop	r0
    1236:	03 c0       	rjmp	.+6      	; 0x123e <os_enterCriticalSection+0x2a>
    1238:	8f 5f       	subi	r24, 0xFF	; 255
    123a:	80 93 7a 03 	sts	0x037A, r24	; 0x80037a <criticalSectionCount>
    123e:	e0 e7       	ldi	r30, 0x70	; 112
    1240:	f0 e0       	ldi	r31, 0x00	; 0
    1242:	80 81       	ld	r24, Z
    1244:	8d 7f       	andi	r24, 0xFD	; 253
    1246:	80 83       	st	Z, r24
    1248:	cc 23       	and	r28, r28
    124a:	09 f0       	breq	.+2      	; 0x124e <os_enterCriticalSection+0x3a>
    124c:	78 94       	sei
    124e:	cf 91       	pop	r28
    1250:	08 95       	ret

00001252 <os_leaveCriticalSection>:
    1252:	cf 93       	push	r28
    1254:	cf b7       	in	r28, 0x3f	; 63
    1256:	cc 1f       	adc	r28, r28
    1258:	cc 27       	eor	r28, r28
    125a:	cc 1f       	adc	r28, r28
    125c:	f8 94       	cli
    125e:	80 91 7a 03 	lds	r24, 0x037A	; 0x80037a <criticalSectionCount>
    1262:	81 11       	cpse	r24, r1
    1264:	08 c0       	rjmp	.+16     	; 0x1276 <os_leaveCriticalSection+0x24>
    1266:	8c e4       	ldi	r24, 0x4C	; 76
    1268:	93 e0       	ldi	r25, 0x03	; 3
    126a:	9f 93       	push	r25
    126c:	8f 93       	push	r24
    126e:	46 df       	rcall	.-372    	; 0x10fc <os_errorPstr>
    1270:	0f 90       	pop	r0
    1272:	0f 90       	pop	r0
    1274:	03 c0       	rjmp	.+6      	; 0x127c <os_leaveCriticalSection+0x2a>
    1276:	81 50       	subi	r24, 0x01	; 1
    1278:	80 93 7a 03 	sts	0x037A, r24	; 0x80037a <criticalSectionCount>
    127c:	80 91 7a 03 	lds	r24, 0x037A	; 0x80037a <criticalSectionCount>
    1280:	81 11       	cpse	r24, r1
    1282:	05 c0       	rjmp	.+10     	; 0x128e <os_leaveCriticalSection+0x3c>
    1284:	e0 e7       	ldi	r30, 0x70	; 112
    1286:	f0 e0       	ldi	r31, 0x00	; 0
    1288:	80 81       	ld	r24, Z
    128a:	82 60       	ori	r24, 0x02	; 2
    128c:	80 83       	st	Z, r24
    128e:	cc 23       	and	r28, r28
    1290:	09 f0       	breq	.+2      	; 0x1294 <os_leaveCriticalSection+0x42>
    1292:	78 94       	sei
    1294:	cf 91       	pop	r28
    1296:	08 95       	ret

00001298 <registerProgram0>:
    1298:	80 e0       	ldi	r24, 0x00	; 0
    129a:	a9 df       	rcall	.-174    	; 0x11ee <os_getProgramSlot>
    129c:	26 eb       	ldi	r18, 0xB6	; 182
    129e:	38 e0       	ldi	r19, 0x08	; 8
    12a0:	fc 01       	movw	r30, r24
    12a2:	31 83       	std	Z+1, r19	; 0x01
    12a4:	20 83       	st	Z, r18
    12a6:	80 91 d3 03 	lds	r24, 0x03D3	; 0x8003d3 <os_autostart>
    12aa:	90 91 d4 03 	lds	r25, 0x03D4	; 0x8003d4 <os_autostart+0x1>
    12ae:	81 60       	ori	r24, 0x01	; 1
    12b0:	90 93 d4 03 	sts	0x03D4, r25	; 0x8003d4 <os_autostart+0x1>
    12b4:	80 93 d3 03 	sts	0x03D3, r24	; 0x8003d3 <os_autostart>
    12b8:	08 95       	ret

000012ba <os_startScheduler>:
    12ba:	10 92 7c 03 	sts	0x037C, r1	; 0x80037c <currentProc>
    12be:	e3 e8       	ldi	r30, 0x83	; 131
    12c0:	f3 e0       	ldi	r31, 0x03	; 3
    12c2:	82 e0       	ldi	r24, 0x02	; 2
    12c4:	81 83       	std	Z+1, r24	; 0x01
    12c6:	82 81       	ldd	r24, Z+2	; 0x02
    12c8:	93 81       	ldd	r25, Z+3	; 0x03
    12ca:	9e bf       	out	0x3e, r25	; 62
    12cc:	8d bf       	out	0x3d, r24	; 61
    12ce:	0f 90       	pop	r0
    12d0:	1f 90       	pop	r1
    12d2:	2f 90       	pop	r2
    12d4:	3f 90       	pop	r3
    12d6:	4f 90       	pop	r4
    12d8:	5f 90       	pop	r5
    12da:	6f 90       	pop	r6
    12dc:	7f 90       	pop	r7
    12de:	8f 90       	pop	r8
    12e0:	9f 90       	pop	r9
    12e2:	af 90       	pop	r10
    12e4:	bf 90       	pop	r11
    12e6:	cf 90       	pop	r12
    12e8:	df 90       	pop	r13
    12ea:	ef 90       	pop	r14
    12ec:	ff 90       	pop	r15
    12ee:	0f 91       	pop	r16
    12f0:	1f 91       	pop	r17
    12f2:	2f 91       	pop	r18
    12f4:	3f 91       	pop	r19
    12f6:	4f 91       	pop	r20
    12f8:	5f 91       	pop	r21
    12fa:	6f 91       	pop	r22
    12fc:	7f 91       	pop	r23
    12fe:	8f 91       	pop	r24
    1300:	9f 91       	pop	r25
    1302:	af 91       	pop	r26
    1304:	bf 91       	pop	r27
    1306:	cf 91       	pop	r28
    1308:	df 91       	pop	r29
    130a:	ef 91       	pop	r30
    130c:	ff 91       	pop	r31
    130e:	ff bf       	out	0x3f, r31	; 63
    1310:	ff 91       	pop	r31
    1312:	18 95       	reti
    1314:	85 e8       	ldi	r24, 0x85	; 133
    1316:	92 e0       	ldi	r25, 0x02	; 2
    1318:	9f 93       	push	r25
    131a:	8f 93       	push	r24
    131c:	ef de       	rcall	.-546    	; 0x10fc <os_errorPstr>
    131e:	0f 90       	pop	r0
    1320:	0f 90       	pop	r0
    1322:	08 95       	ret

00001324 <os_getStackChecksum>:
    1324:	cf 92       	push	r12
    1326:	df 92       	push	r13
    1328:	ef 92       	push	r14
    132a:	ff 92       	push	r15
    132c:	0f 93       	push	r16
    132e:	1f 93       	push	r17
    1330:	e8 2f       	mov	r30, r24
    1332:	28 2f       	mov	r18, r24
    1334:	30 e0       	ldi	r19, 0x00	; 0
    1336:	a7 e6       	ldi	r26, 0x67	; 103
    1338:	b3 e0       	ldi	r27, 0x03	; 3
    133a:	eb d6       	rcall	.+3542   	; 0x2112 <__umulhisi3>
    133c:	0f e1       	ldi	r16, 0x1F	; 31
    133e:	11 e2       	ldi	r17, 0x21	; 33
    1340:	20 e0       	ldi	r18, 0x00	; 0
    1342:	30 e0       	ldi	r19, 0x00	; 0
    1344:	68 01       	movw	r12, r16
    1346:	79 01       	movw	r14, r18
    1348:	c6 1a       	sub	r12, r22
    134a:	d7 0a       	sbc	r13, r23
    134c:	e8 0a       	sbc	r14, r24
    134e:	f9 0a       	sbc	r15, r25
    1350:	b7 01       	movw	r22, r14
    1352:	a6 01       	movw	r20, r12
    1354:	8e 2f       	mov	r24, r30
    1356:	90 e0       	ldi	r25, 0x00	; 0
    1358:	fc 01       	movw	r30, r24
    135a:	ee 0f       	add	r30, r30
    135c:	ff 1f       	adc	r31, r31
    135e:	e8 0f       	add	r30, r24
    1360:	f9 1f       	adc	r31, r25
    1362:	ee 0f       	add	r30, r30
    1364:	ff 1f       	adc	r31, r31
    1366:	ed 57       	subi	r30, 0x7D	; 125
    1368:	fc 4f       	sbci	r31, 0xFC	; 252
    136a:	a2 81       	ldd	r26, Z+2	; 0x02
    136c:	b3 81       	ldd	r27, Z+3	; 0x03
    136e:	4a 1b       	sub	r20, r26
    1370:	40 31       	cpi	r20, 0x10	; 16
    1372:	78 f4       	brcc	.+30     	; 0x1392 <os_getStackChecksum+0x6e>
    1374:	90 e0       	ldi	r25, 0x00	; 0
    1376:	80 e0       	ldi	r24, 0x00	; 0
    1378:	17 c0       	rjmp	.+46     	; 0x13a8 <os_getStackChecksum+0x84>
    137a:	24 2f       	mov	r18, r20
    137c:	22 95       	swap	r18
    137e:	2f 70       	andi	r18, 0x0F	; 15
    1380:	fd 01       	movw	r30, r26
    1382:	29 9f       	mul	r18, r25
    1384:	e0 0d       	add	r30, r0
    1386:	f1 1d       	adc	r31, r1
    1388:	11 24       	eor	r1, r1
    138a:	20 81       	ld	r18, Z
    138c:	82 27       	eor	r24, r18
    138e:	9f 5f       	subi	r25, 0xFF	; 255
    1390:	02 c0       	rjmp	.+4      	; 0x1396 <os_getStackChecksum+0x72>
    1392:	90 e0       	ldi	r25, 0x00	; 0
    1394:	80 e0       	ldi	r24, 0x00	; 0
    1396:	90 31       	cpi	r25, 0x10	; 16
    1398:	80 f3       	brcs	.-32     	; 0x137a <os_getStackChecksum+0x56>
    139a:	08 c0       	rjmp	.+16     	; 0x13ac <os_getStackChecksum+0x88>
    139c:	fd 01       	movw	r30, r26
    139e:	e9 0f       	add	r30, r25
    13a0:	f1 1d       	adc	r31, r1
    13a2:	20 81       	ld	r18, Z
    13a4:	82 27       	eor	r24, r18
    13a6:	9f 5f       	subi	r25, 0xFF	; 255
    13a8:	94 17       	cp	r25, r20
    13aa:	c0 f3       	brcs	.-16     	; 0x139c <os_getStackChecksum+0x78>
    13ac:	1f 91       	pop	r17
    13ae:	0f 91       	pop	r16
    13b0:	ff 90       	pop	r15
    13b2:	ef 90       	pop	r14
    13b4:	df 90       	pop	r13
    13b6:	cf 90       	pop	r12
    13b8:	08 95       	ret

000013ba <os_exec>:
    13ba:	ef 92       	push	r14
    13bc:	ff 92       	push	r15
    13be:	0f 93       	push	r16
    13c0:	1f 93       	push	r17
    13c2:	cf 93       	push	r28
    13c4:	df 93       	push	r29
    13c6:	e8 2e       	mov	r14, r24
    13c8:	f6 2e       	mov	r15, r22
    13ca:	24 df       	rcall	.-440    	; 0x1214 <os_enterCriticalSection>
    13cc:	c0 e0       	ldi	r28, 0x00	; 0
    13ce:	d0 e0       	ldi	r29, 0x00	; 0
    13d0:	0d c0       	rjmp	.+26     	; 0x13ec <os_exec+0x32>
    13d2:	fe 01       	movw	r30, r28
    13d4:	ee 0f       	add	r30, r30
    13d6:	ff 1f       	adc	r31, r31
    13d8:	ec 0f       	add	r30, r28
    13da:	fd 1f       	adc	r31, r29
    13dc:	ee 0f       	add	r30, r30
    13de:	ff 1f       	adc	r31, r31
    13e0:	ed 57       	subi	r30, 0x7D	; 125
    13e2:	fc 4f       	sbci	r31, 0xFC	; 252
    13e4:	81 81       	ldd	r24, Z+1	; 0x01
    13e6:	88 23       	and	r24, r24
    13e8:	31 f0       	breq	.+12     	; 0x13f6 <os_exec+0x3c>
    13ea:	21 96       	adiw	r28, 0x01	; 1
    13ec:	c8 30       	cpi	r28, 0x08	; 8
    13ee:	d1 05       	cpc	r29, r1
    13f0:	84 f3       	brlt	.-32     	; 0x13d2 <os_exec+0x18>
    13f2:	cf ef       	ldi	r28, 0xFF	; 255
    13f4:	df ef       	ldi	r29, 0xFF	; 255
    13f6:	cf 3f       	cpi	r28, 0xFF	; 255
    13f8:	8f ef       	ldi	r24, 0xFF	; 255
    13fa:	d8 07       	cpc	r29, r24
    13fc:	81 f4       	brne	.+32     	; 0x141e <os_exec+0x64>
    13fe:	8a ee       	ldi	r24, 0xEA	; 234
    1400:	92 e0       	ldi	r25, 0x02	; 2
    1402:	9f 93       	push	r25
    1404:	8f 93       	push	r24
    1406:	8c ed       	ldi	r24, 0xDC	; 220
    1408:	92 e0       	ldi	r25, 0x02	; 2
    140a:	9f 93       	push	r25
    140c:	8f 93       	push	r24
    140e:	b9 db       	rcall	.-2190   	; 0xb82 <terminal_log_printf_p>
    1410:	20 df       	rcall	.-448    	; 0x1252 <os_leaveCriticalSection>
    1412:	0f 90       	pop	r0
    1414:	0f 90       	pop	r0
    1416:	0f 90       	pop	r0
    1418:	0f 90       	pop	r0
    141a:	1f ef       	ldi	r17, 0xFF	; 255
    141c:	6b c0       	rjmp	.+214    	; 0x14f4 <os_exec+0x13a>
    141e:	8e 01       	movw	r16, r28
    1420:	00 0f       	add	r16, r16
    1422:	11 1f       	adc	r17, r17
    1424:	0c 0f       	add	r16, r28
    1426:	1d 1f       	adc	r17, r29
    1428:	00 0f       	add	r16, r16
    142a:	11 1f       	adc	r17, r17
    142c:	0d 57       	subi	r16, 0x7D	; 125
    142e:	1c 4f       	sbci	r17, 0xFC	; 252
    1430:	d8 01       	movw	r26, r16
    1432:	ec 92       	st	X, r14
    1434:	81 e0       	ldi	r24, 0x01	; 1
    1436:	11 96       	adiw	r26, 0x01	; 1
    1438:	8c 93       	st	X, r24
    143a:	11 97       	sbiw	r26, 0x01	; 1
    143c:	14 96       	adiw	r26, 0x04	; 4
    143e:	fc 92       	st	X, r15
    1440:	14 97       	sbiw	r26, 0x04	; 4
    1442:	87 e6       	ldi	r24, 0x67	; 103
    1444:	93 e0       	ldi	r25, 0x03	; 3
    1446:	c8 9f       	mul	r28, r24
    1448:	90 01       	movw	r18, r0
    144a:	c9 9f       	mul	r28, r25
    144c:	30 0d       	add	r19, r0
    144e:	d8 9f       	mul	r29, r24
    1450:	30 0d       	add	r19, r0
    1452:	11 24       	eor	r1, r1
    1454:	8f e1       	ldi	r24, 0x1F	; 31
    1456:	91 e2       	ldi	r25, 0x21	; 33
    1458:	7c 01       	movw	r14, r24
    145a:	e2 1a       	sub	r14, r18
    145c:	f3 0a       	sbc	r15, r19
    145e:	c7 01       	movw	r24, r14
    1460:	01 97       	sbiw	r24, 0x01	; 1
    1462:	13 96       	adiw	r26, 0x03	; 3
    1464:	9c 93       	st	X, r25
    1466:	8e 93       	st	-X, r24
    1468:	12 97       	sbiw	r26, 0x02	; 2
    146a:	80 e2       	ldi	r24, 0x20	; 32
    146c:	9c e0       	ldi	r25, 0x0C	; 12
    146e:	8f de       	rcall	.-738    	; 0x118e <addressOfProgram>
    1470:	f7 01       	movw	r30, r14
    1472:	60 83       	st	Z, r22
    1474:	d8 01       	movw	r26, r16
    1476:	12 96       	adiw	r26, 0x02	; 2
    1478:	ed 91       	ld	r30, X+
    147a:	fc 91       	ld	r31, X
    147c:	13 97       	sbiw	r26, 0x03	; 3
    147e:	9f 01       	movw	r18, r30
    1480:	21 50       	subi	r18, 0x01	; 1
    1482:	31 09       	sbc	r19, r1
    1484:	13 96       	adiw	r26, 0x03	; 3
    1486:	3c 93       	st	X, r19
    1488:	2e 93       	st	-X, r18
    148a:	12 97       	sbiw	r26, 0x02	; 2
    148c:	70 83       	st	Z, r23
    148e:	12 96       	adiw	r26, 0x02	; 2
    1490:	ed 91       	ld	r30, X+
    1492:	fc 91       	ld	r31, X
    1494:	13 97       	sbiw	r26, 0x03	; 3
    1496:	9f 01       	movw	r18, r30
    1498:	21 50       	subi	r18, 0x01	; 1
    149a:	31 09       	sbc	r19, r1
    149c:	13 96       	adiw	r26, 0x03	; 3
    149e:	3c 93       	st	X, r19
    14a0:	2e 93       	st	-X, r18
    14a2:	12 97       	sbiw	r26, 0x02	; 2
    14a4:	80 83       	st	Z, r24
    14a6:	80 e0       	ldi	r24, 0x00	; 0
    14a8:	12 c0       	rjmp	.+36     	; 0x14ce <os_exec+0x114>
    14aa:	fe 01       	movw	r30, r28
    14ac:	ee 0f       	add	r30, r30
    14ae:	ff 1f       	adc	r31, r31
    14b0:	ec 0f       	add	r30, r28
    14b2:	fd 1f       	adc	r31, r29
    14b4:	ee 0f       	add	r30, r30
    14b6:	ff 1f       	adc	r31, r31
    14b8:	ed 57       	subi	r30, 0x7D	; 125
    14ba:	fc 4f       	sbci	r31, 0xFC	; 252
    14bc:	a2 81       	ldd	r26, Z+2	; 0x02
    14be:	b3 81       	ldd	r27, Z+3	; 0x03
    14c0:	9d 01       	movw	r18, r26
    14c2:	21 50       	subi	r18, 0x01	; 1
    14c4:	31 09       	sbc	r19, r1
    14c6:	33 83       	std	Z+3, r19	; 0x03
    14c8:	22 83       	std	Z+2, r18	; 0x02
    14ca:	1c 92       	st	X, r1
    14cc:	8f 5f       	subi	r24, 0xFF	; 255
    14ce:	81 32       	cpi	r24, 0x21	; 33
    14d0:	60 f3       	brcs	.-40     	; 0x14aa <os_exec+0xf0>
    14d2:	1c 2f       	mov	r17, r28
    14d4:	8c 2f       	mov	r24, r28
    14d6:	26 df       	rcall	.-436    	; 0x1324 <os_getStackChecksum>
    14d8:	fe 01       	movw	r30, r28
    14da:	ee 0f       	add	r30, r30
    14dc:	ff 1f       	adc	r31, r31
    14de:	ec 0f       	add	r30, r28
    14e0:	fd 1f       	adc	r31, r29
    14e2:	ee 0f       	add	r30, r30
    14e4:	ff 1f       	adc	r31, r31
    14e6:	ed 57       	subi	r30, 0x7D	; 125
    14e8:	fc 4f       	sbci	r31, 0xFC	; 252
    14ea:	85 83       	std	Z+5, r24	; 0x05
    14ec:	90 de       	rcall	.-736    	; 0x120e <os_getSchedulingStrategy>
    14ee:	6c 2f       	mov	r22, r28
    14f0:	fe d1       	rcall	.+1020   	; 0x18ee <os_resetProcessSchedulingInformation>
    14f2:	af de       	rcall	.-674    	; 0x1252 <os_leaveCriticalSection>
    14f4:	81 2f       	mov	r24, r17
    14f6:	df 91       	pop	r29
    14f8:	cf 91       	pop	r28
    14fa:	1f 91       	pop	r17
    14fc:	0f 91       	pop	r16
    14fe:	ff 90       	pop	r15
    1500:	ef 90       	pop	r14
    1502:	08 95       	ret

00001504 <os_initScheduler>:
    1504:	cf 93       	push	r28
    1506:	df 93       	push	r29
    1508:	80 e0       	ldi	r24, 0x00	; 0
    150a:	90 e0       	ldi	r25, 0x00	; 0
    150c:	0b c0       	rjmp	.+22     	; 0x1524 <os_initScheduler+0x20>
    150e:	fc 01       	movw	r30, r24
    1510:	ee 0f       	add	r30, r30
    1512:	ff 1f       	adc	r31, r31
    1514:	e8 0f       	add	r30, r24
    1516:	f9 1f       	adc	r31, r25
    1518:	ee 0f       	add	r30, r30
    151a:	ff 1f       	adc	r31, r31
    151c:	ed 57       	subi	r30, 0x7D	; 125
    151e:	fc 4f       	sbci	r31, 0xFC	; 252
    1520:	11 82       	std	Z+1, r1	; 0x01
    1522:	01 96       	adiw	r24, 0x01	; 1
    1524:	88 30       	cpi	r24, 0x08	; 8
    1526:	91 05       	cpc	r25, r1
    1528:	94 f3       	brlt	.-28     	; 0x150e <os_initScheduler+0xa>
    152a:	c0 e0       	ldi	r28, 0x00	; 0
    152c:	d0 e0       	ldi	r29, 0x00	; 0
    152e:	08 c0       	rjmp	.+16     	; 0x1540 <os_initScheduler+0x3c>
    1530:	8c 2f       	mov	r24, r28
    1532:	32 de       	rcall	.-924    	; 0x1198 <os_checkAutostartProgram>
    1534:	88 23       	and	r24, r24
    1536:	19 f0       	breq	.+6      	; 0x153e <os_initScheduler+0x3a>
    1538:	62 e0       	ldi	r22, 0x02	; 2
    153a:	8c 2f       	mov	r24, r28
    153c:	3e df       	rcall	.-388    	; 0x13ba <os_exec>
    153e:	21 96       	adiw	r28, 0x01	; 1
    1540:	c0 31       	cpi	r28, 0x10	; 16
    1542:	d1 05       	cpc	r29, r1
    1544:	ac f3       	brlt	.-22     	; 0x1530 <os_initScheduler+0x2c>
    1546:	80 91 7b 03 	lds	r24, 0x037B	; 0x80037b <currSchedStrat>
    154a:	f8 d1       	rcall	.+1008   	; 0x193c <os_resetSchedulingInformation>
    154c:	88 eb       	ldi	r24, 0xB8	; 184
    154e:	9b e0       	ldi	r25, 0x0B	; 11
    1550:	2d dd       	rcall	.-1446   	; 0xfac <delayMs>
    1552:	20 91 b3 03 	lds	r18, 0x03B3	; 0x8003b3 <os_programs>
    1556:	30 91 b4 03 	lds	r19, 0x03B4	; 0x8003b4 <os_programs+0x1>
    155a:	86 ec       	ldi	r24, 0xC6	; 198
    155c:	92 e0       	ldi	r25, 0x02	; 2
    155e:	9f 93       	push	r25
    1560:	8f 93       	push	r24
    1562:	81 e0       	ldi	r24, 0x01	; 1
    1564:	23 2b       	or	r18, r19
    1566:	09 f4       	brne	.+2      	; 0x156a <os_initScheduler+0x66>
    1568:	80 e0       	ldi	r24, 0x00	; 0
    156a:	8f 93       	push	r24
    156c:	4c dd       	rcall	.-1384   	; 0x1006 <assertPstr>
    156e:	0f 90       	pop	r0
    1570:	0f 90       	pop	r0
    1572:	0f 90       	pop	r0
    1574:	df 91       	pop	r29
    1576:	cf 91       	pop	r28
    1578:	08 95       	ret

0000157a <os_isStackInBounds>:
    157a:	8f 92       	push	r8
    157c:	9f 92       	push	r9
    157e:	af 92       	push	r10
    1580:	bf 92       	push	r11
    1582:	cf 92       	push	r12
    1584:	df 92       	push	r13
    1586:	ef 92       	push	r14
    1588:	ff 92       	push	r15
    158a:	0f 93       	push	r16
    158c:	1f 93       	push	r17
    158e:	48 2f       	mov	r20, r24
    1590:	50 e0       	ldi	r21, 0x00	; 0
    1592:	fa 01       	movw	r30, r20
    1594:	ee 0f       	add	r30, r30
    1596:	ff 1f       	adc	r31, r31
    1598:	e4 0f       	add	r30, r20
    159a:	f5 1f       	adc	r31, r21
    159c:	ee 0f       	add	r30, r30
    159e:	ff 1f       	adc	r31, r31
    15a0:	ed 57       	subi	r30, 0x7D	; 125
    15a2:	fc 4f       	sbci	r31, 0xFC	; 252
    15a4:	c2 80       	ldd	r12, Z+2	; 0x02
    15a6:	d3 80       	ldd	r13, Z+3	; 0x03
    15a8:	e1 2c       	mov	r14, r1
    15aa:	f1 2c       	mov	r15, r1
    15ac:	9a 01       	movw	r18, r20
    15ae:	a7 e6       	ldi	r26, 0x67	; 103
    15b0:	b3 e0       	ldi	r27, 0x03	; 3
    15b2:	af d5       	rcall	.+2910   	; 0x2112 <__umulhisi3>
    15b4:	0f e1       	ldi	r16, 0x1F	; 31
    15b6:	11 e2       	ldi	r17, 0x21	; 33
    15b8:	20 e0       	ldi	r18, 0x00	; 0
    15ba:	30 e0       	ldi	r19, 0x00	; 0
    15bc:	06 1b       	sub	r16, r22
    15be:	17 0b       	sbc	r17, r23
    15c0:	28 0b       	sbc	r18, r24
    15c2:	39 0b       	sbc	r19, r25
    15c4:	0c 15       	cp	r16, r12
    15c6:	1d 05       	cpc	r17, r13
    15c8:	2e 05       	cpc	r18, r14
    15ca:	3f 05       	cpc	r19, r15
    15cc:	88 f0       	brcs	.+34     	; 0x15f0 <os_isStackInBounds+0x76>
    15ce:	08 eb       	ldi	r16, 0xB8	; 184
    15d0:	1d e1       	ldi	r17, 0x1D	; 29
    15d2:	20 e0       	ldi	r18, 0x00	; 0
    15d4:	30 e0       	ldi	r19, 0x00	; 0
    15d6:	48 01       	movw	r8, r16
    15d8:	59 01       	movw	r10, r18
    15da:	86 1a       	sub	r8, r22
    15dc:	97 0a       	sbc	r9, r23
    15de:	a8 0a       	sbc	r10, r24
    15e0:	b9 0a       	sbc	r11, r25
    15e2:	c8 14       	cp	r12, r8
    15e4:	d9 04       	cpc	r13, r9
    15e6:	ea 04       	cpc	r14, r10
    15e8:	fb 04       	cpc	r15, r11
    15ea:	20 f4       	brcc	.+8      	; 0x15f4 <os_isStackInBounds+0x7a>
    15ec:	80 e0       	ldi	r24, 0x00	; 0
    15ee:	03 c0       	rjmp	.+6      	; 0x15f6 <os_isStackInBounds+0x7c>
    15f0:	80 e0       	ldi	r24, 0x00	; 0
    15f2:	01 c0       	rjmp	.+2      	; 0x15f6 <os_isStackInBounds+0x7c>
    15f4:	81 e0       	ldi	r24, 0x01	; 1
    15f6:	1f 91       	pop	r17
    15f8:	0f 91       	pop	r16
    15fa:	ff 90       	pop	r15
    15fc:	ef 90       	pop	r14
    15fe:	df 90       	pop	r13
    1600:	cf 90       	pop	r12
    1602:	bf 90       	pop	r11
    1604:	af 90       	pop	r10
    1606:	9f 90       	pop	r9
    1608:	8f 90       	pop	r8
    160a:	08 95       	ret

0000160c <__vector_13>:
    160c:	ff 93       	push	r31
    160e:	ff b7       	in	r31, 0x3f	; 63
    1610:	ff 93       	push	r31
    1612:	ef 93       	push	r30
    1614:	df 93       	push	r29
    1616:	cf 93       	push	r28
    1618:	bf 93       	push	r27
    161a:	af 93       	push	r26
    161c:	9f 93       	push	r25
    161e:	8f 93       	push	r24
    1620:	7f 93       	push	r23
    1622:	6f 93       	push	r22
    1624:	5f 93       	push	r21
    1626:	4f 93       	push	r20
    1628:	3f 93       	push	r19
    162a:	2f 93       	push	r18
    162c:	1f 93       	push	r17
    162e:	0f 93       	push	r16
    1630:	ff 92       	push	r15
    1632:	ef 92       	push	r14
    1634:	df 92       	push	r13
    1636:	cf 92       	push	r12
    1638:	bf 92       	push	r11
    163a:	af 92       	push	r10
    163c:	9f 92       	push	r9
    163e:	8f 92       	push	r8
    1640:	7f 92       	push	r7
    1642:	6f 92       	push	r6
    1644:	5f 92       	push	r5
    1646:	4f 92       	push	r4
    1648:	3f 92       	push	r3
    164a:	2f 92       	push	r2
    164c:	1f 92       	push	r1
    164e:	11 24       	eor	r1, r1
    1650:	0f 92       	push	r0
    1652:	80 91 7c 03 	lds	r24, 0x037C	; 0x80037c <currentProc>
    1656:	90 e0       	ldi	r25, 0x00	; 0
    1658:	2d b7       	in	r18, 0x3d	; 61
    165a:	3e b7       	in	r19, 0x3e	; 62
    165c:	fc 01       	movw	r30, r24
    165e:	ee 0f       	add	r30, r30
    1660:	ff 1f       	adc	r31, r31
    1662:	e8 0f       	add	r30, r24
    1664:	f9 1f       	adc	r31, r25
    1666:	ee 0f       	add	r30, r30
    1668:	ff 1f       	adc	r31, r31
    166a:	ed 57       	subi	r30, 0x7D	; 125
    166c:	fc 4f       	sbci	r31, 0xFC	; 252
    166e:	33 83       	std	Z+3, r19	; 0x03
    1670:	22 83       	std	Z+2, r18	; 0x02
    1672:	8f ed       	ldi	r24, 0xDF	; 223
    1674:	91 e2       	ldi	r25, 0x21	; 33
    1676:	9e bf       	out	0x3e, r25	; 62
    1678:	8d bf       	out	0x3d, r24	; 61
    167a:	10 91 7c 03 	lds	r17, 0x037C	; 0x80037c <currentProc>
    167e:	c1 2f       	mov	r28, r17
    1680:	d0 e0       	ldi	r29, 0x00	; 0
    1682:	fe 01       	movw	r30, r28
    1684:	ee 0f       	add	r30, r30
    1686:	ff 1f       	adc	r31, r31
    1688:	ec 0f       	add	r30, r28
    168a:	fd 1f       	adc	r31, r29
    168c:	ee 0f       	add	r30, r30
    168e:	ff 1f       	adc	r31, r31
    1690:	ed 57       	subi	r30, 0x7D	; 125
    1692:	fc 4f       	sbci	r31, 0xFC	; 252
    1694:	81 81       	ldd	r24, Z+1	; 0x01
    1696:	82 30       	cpi	r24, 0x02	; 2
    1698:	59 f4       	brne	.+22     	; 0x16b0 <__vector_13+0xa4>
    169a:	fe 01       	movw	r30, r28
    169c:	ee 0f       	add	r30, r30
    169e:	ff 1f       	adc	r31, r31
    16a0:	ec 0f       	add	r30, r28
    16a2:	fd 1f       	adc	r31, r29
    16a4:	ee 0f       	add	r30, r30
    16a6:	ff 1f       	adc	r31, r31
    16a8:	ed 57       	subi	r30, 0x7D	; 125
    16aa:	fc 4f       	sbci	r31, 0xFC	; 252
    16ac:	81 e0       	ldi	r24, 0x01	; 1
    16ae:	81 83       	std	Z+1, r24	; 0x01
    16b0:	81 2f       	mov	r24, r17
    16b2:	38 de       	rcall	.-912    	; 0x1324 <os_getStackChecksum>
    16b4:	9e 01       	movw	r18, r28
    16b6:	22 0f       	add	r18, r18
    16b8:	33 1f       	adc	r19, r19
    16ba:	c2 0f       	add	r28, r18
    16bc:	d3 1f       	adc	r29, r19
    16be:	cc 0f       	add	r28, r28
    16c0:	dd 1f       	adc	r29, r29
    16c2:	cd 57       	subi	r28, 0x7D	; 125
    16c4:	dc 4f       	sbci	r29, 0xFC	; 252
    16c6:	8d 83       	std	Y+5, r24	; 0x05
    16c8:	81 2f       	mov	r24, r17
    16ca:	57 df       	rcall	.-338    	; 0x157a <os_isStackInBounds>
    16cc:	81 11       	cpse	r24, r1
    16ce:	0b c0       	rjmp	.+22     	; 0x16e6 <__vector_13+0xda>
    16d0:	1f 92       	push	r1
    16d2:	1f 93       	push	r17
    16d4:	82 e2       	ldi	r24, 0x22	; 34
    16d6:	93 e0       	ldi	r25, 0x03	; 3
    16d8:	9f 93       	push	r25
    16da:	8f 93       	push	r24
    16dc:	0f dd       	rcall	.-1506   	; 0x10fc <os_errorPstr>
    16de:	0f 90       	pop	r0
    16e0:	0f 90       	pop	r0
    16e2:	0f 90       	pop	r0
    16e4:	0f 90       	pop	r0
    16e6:	93 dd       	rcall	.-1242   	; 0x120e <os_getSchedulingStrategy>
    16e8:	88 23       	and	r24, r24
    16ea:	19 f0       	breq	.+6      	; 0x16f2 <__vector_13+0xe6>
    16ec:	81 30       	cpi	r24, 0x01	; 1
    16ee:	49 f0       	breq	.+18     	; 0x1702 <__vector_13+0xf6>
    16f0:	10 c0       	rjmp	.+32     	; 0x1712 <__vector_13+0x106>
    16f2:	60 91 7c 03 	lds	r22, 0x037C	; 0x80037c <currentProc>
    16f6:	83 e8       	ldi	r24, 0x83	; 131
    16f8:	93 e0       	ldi	r25, 0x03	; 3
    16fa:	bf d0       	rcall	.+382    	; 0x187a <os_scheduler_RoundRobin>
    16fc:	80 93 7c 03 	sts	0x037C, r24	; 0x80037c <currentProc>
    1700:	0a c0       	rjmp	.+20     	; 0x1716 <__vector_13+0x10a>
    1702:	60 91 7c 03 	lds	r22, 0x037C	; 0x80037c <currentProc>
    1706:	83 e8       	ldi	r24, 0x83	; 131
    1708:	93 e0       	ldi	r25, 0x03	; 3
    170a:	41 d1       	rcall	.+642    	; 0x198e <os_scheduler_DynamicPriorityRoundRobin>
    170c:	80 93 7c 03 	sts	0x037C, r24	; 0x80037c <currentProc>
    1710:	02 c0       	rjmp	.+4      	; 0x1716 <__vector_13+0x10a>
    1712:	10 92 7c 03 	sts	0x037C, r1	; 0x80037c <currentProc>
    1716:	c0 91 7c 03 	lds	r28, 0x037C	; 0x80037c <currentProc>
    171a:	8c 2f       	mov	r24, r28
    171c:	90 e0       	ldi	r25, 0x00	; 0
    171e:	fc 01       	movw	r30, r24
    1720:	ee 0f       	add	r30, r30
    1722:	ff 1f       	adc	r31, r31
    1724:	e8 0f       	add	r30, r24
    1726:	f9 1f       	adc	r31, r25
    1728:	ee 0f       	add	r30, r30
    172a:	ff 1f       	adc	r31, r31
    172c:	ed 57       	subi	r30, 0x7D	; 125
    172e:	fc 4f       	sbci	r31, 0xFC	; 252
    1730:	d5 81       	ldd	r29, Z+5	; 0x05
    1732:	8c 2f       	mov	r24, r28
    1734:	f7 dd       	rcall	.-1042   	; 0x1324 <os_getStackChecksum>
    1736:	d8 17       	cp	r29, r24
    1738:	59 f0       	breq	.+22     	; 0x1750 <__vector_13+0x144>
    173a:	1f 92       	push	r1
    173c:	cf 93       	push	r28
    173e:	82 e0       	ldi	r24, 0x02	; 2
    1740:	93 e0       	ldi	r25, 0x03	; 3
    1742:	9f 93       	push	r25
    1744:	8f 93       	push	r24
    1746:	da dc       	rcall	.-1612   	; 0x10fc <os_errorPstr>
    1748:	0f 90       	pop	r0
    174a:	0f 90       	pop	r0
    174c:	0f 90       	pop	r0
    174e:	0f 90       	pop	r0
    1750:	80 91 7c 03 	lds	r24, 0x037C	; 0x80037c <currentProc>
    1754:	90 e0       	ldi	r25, 0x00	; 0
    1756:	fc 01       	movw	r30, r24
    1758:	ee 0f       	add	r30, r30
    175a:	ff 1f       	adc	r31, r31
    175c:	df 01       	movw	r26, r30
    175e:	a8 0f       	add	r26, r24
    1760:	b9 1f       	adc	r27, r25
    1762:	aa 0f       	add	r26, r26
    1764:	bb 1f       	adc	r27, r27
    1766:	ad 57       	subi	r26, 0x7D	; 125
    1768:	bc 4f       	sbci	r27, 0xFC	; 252
    176a:	22 e0       	ldi	r18, 0x02	; 2
    176c:	11 96       	adiw	r26, 0x01	; 1
    176e:	2c 93       	st	X, r18
    1770:	11 97       	sbiw	r26, 0x01	; 1
    1772:	fd 01       	movw	r30, r26
    1774:	82 81       	ldd	r24, Z+2	; 0x02
    1776:	93 81       	ldd	r25, Z+3	; 0x03
    1778:	9e bf       	out	0x3e, r25	; 62
    177a:	8d bf       	out	0x3d, r24	; 61
    177c:	0f 90       	pop	r0
    177e:	1f 90       	pop	r1
    1780:	2f 90       	pop	r2
    1782:	3f 90       	pop	r3
    1784:	4f 90       	pop	r4
    1786:	5f 90       	pop	r5
    1788:	6f 90       	pop	r6
    178a:	7f 90       	pop	r7
    178c:	8f 90       	pop	r8
    178e:	9f 90       	pop	r9
    1790:	af 90       	pop	r10
    1792:	bf 90       	pop	r11
    1794:	cf 90       	pop	r12
    1796:	df 90       	pop	r13
    1798:	ef 90       	pop	r14
    179a:	ff 90       	pop	r15
    179c:	0f 91       	pop	r16
    179e:	1f 91       	pop	r17
    17a0:	2f 91       	pop	r18
    17a2:	3f 91       	pop	r19
    17a4:	4f 91       	pop	r20
    17a6:	5f 91       	pop	r21
    17a8:	6f 91       	pop	r22
    17aa:	7f 91       	pop	r23
    17ac:	8f 91       	pop	r24
    17ae:	9f 91       	pop	r25
    17b0:	af 91       	pop	r26
    17b2:	bf 91       	pop	r27
    17b4:	cf 91       	pop	r28
    17b6:	df 91       	pop	r29
    17b8:	ef 91       	pop	r30
    17ba:	ff 91       	pop	r31
    17bc:	ff bf       	out	0x3f, r31	; 63
    17be:	ff 91       	pop	r31
    17c0:	18 95       	reti

000017c2 <os_yield>:
    17c2:	80 91 7a 03 	lds	r24, 0x037A	; 0x80037a <criticalSectionCount>
    17c6:	81 11       	cpse	r24, r1
    17c8:	04 c0       	rjmp	.+8      	; 0x17d2 <os_yield+0x10>
    17ca:	f8 94       	cli
    17cc:	10 92 b2 00 	sts	0x00B2, r1	; 0x8000b2 <__TEXT_REGION_LENGTH__+0x7c00b2>
    17d0:	1d cf       	rjmp	.-454    	; 0x160c <__vector_13>
    17d2:	08 95       	ret

000017d4 <os_kill>:
    17d4:	cf 93       	push	r28
    17d6:	9f ef       	ldi	r25, 0xFF	; 255
    17d8:	98 0f       	add	r25, r24
    17da:	97 30       	cpi	r25, 0x07	; 7
    17dc:	60 f5       	brcc	.+88     	; 0x1836 <os_kill+0x62>
    17de:	28 2f       	mov	r18, r24
    17e0:	30 e0       	ldi	r19, 0x00	; 0
    17e2:	f9 01       	movw	r30, r18
    17e4:	ee 0f       	add	r30, r30
    17e6:	ff 1f       	adc	r31, r31
    17e8:	e2 0f       	add	r30, r18
    17ea:	f3 1f       	adc	r31, r19
    17ec:	ee 0f       	add	r30, r30
    17ee:	ff 1f       	adc	r31, r31
    17f0:	ed 57       	subi	r30, 0x7D	; 125
    17f2:	fc 4f       	sbci	r31, 0xFC	; 252
    17f4:	91 81       	ldd	r25, Z+1	; 0x01
    17f6:	99 23       	and	r25, r25
    17f8:	01 f1       	breq	.+64     	; 0x183a <os_kill+0x66>
    17fa:	c8 2f       	mov	r28, r24
    17fc:	0b dd       	rcall	.-1514   	; 0x1214 <os_enterCriticalSection>
    17fe:	8c 2f       	mov	r24, r28
    1800:	eb dc       	rcall	.-1578   	; 0x11d8 <os_getProcessSlot>
    1802:	fc 01       	movw	r30, r24
    1804:	11 82       	std	Z+1, r1	; 0x01
    1806:	03 dd       	rcall	.-1530   	; 0x120e <os_getSchedulingStrategy>
    1808:	6c 2f       	mov	r22, r28
    180a:	71 d0       	rcall	.+226    	; 0x18ee <os_resetProcessSchedulingInformation>
    180c:	f6 dc       	rcall	.-1556   	; 0x11fa <os_getCurrentProc>
    180e:	c8 13       	cpse	r28, r24
    1810:	0e c0       	rjmp	.+28     	; 0x182e <os_kill+0x5a>
    1812:	81 e0       	ldi	r24, 0x01	; 1
    1814:	80 93 7a 03 	sts	0x037A, r24	; 0x80037a <criticalSectionCount>
    1818:	1c dd       	rcall	.-1480   	; 0x1252 <os_leaveCriticalSection>
    181a:	78 94       	sei
    181c:	d2 df       	rcall	.-92     	; 0x17c2 <os_yield>
    181e:	8c e1       	ldi	r24, 0x1C	; 28
    1820:	92 e0       	ldi	r25, 0x02	; 2
    1822:	9f 93       	push	r25
    1824:	8f 93       	push	r24
    1826:	84 d4       	rcall	.+2312   	; 0x2130 <printf>
    1828:	0f 90       	pop	r0
    182a:	0f 90       	pop	r0
    182c:	f8 cf       	rjmp	.-16     	; 0x181e <os_kill+0x4a>
    182e:	11 dd       	rcall	.-1502   	; 0x1252 <os_leaveCriticalSection>
    1830:	c8 df       	rcall	.-112    	; 0x17c2 <os_yield>
    1832:	81 e0       	ldi	r24, 0x01	; 1
    1834:	03 c0       	rjmp	.+6      	; 0x183c <os_kill+0x68>
    1836:	80 e0       	ldi	r24, 0x00	; 0
    1838:	01 c0       	rjmp	.+2      	; 0x183c <os_kill+0x68>
    183a:	80 e0       	ldi	r24, 0x00	; 0
    183c:	cf 91       	pop	r28
    183e:	08 95       	ret

00001840 <os_dispatcher>:
    1840:	dc dc       	rcall	.-1608   	; 0x11fa <os_getCurrentProc>
    1842:	c8 2f       	mov	r28, r24
    1844:	90 e0       	ldi	r25, 0x00	; 0
    1846:	fc 01       	movw	r30, r24
    1848:	ee 0f       	add	r30, r30
    184a:	ff 1f       	adc	r31, r31
    184c:	e8 0f       	add	r30, r24
    184e:	f9 1f       	adc	r31, r25
    1850:	ee 0f       	add	r30, r30
    1852:	ff 1f       	adc	r31, r31
    1854:	ed 57       	subi	r30, 0x7D	; 125
    1856:	fc 4f       	sbci	r31, 0xFC	; 252
    1858:	80 81       	ld	r24, Z
    185a:	b0 dc       	rcall	.-1696   	; 0x11bc <os_lookupProgramFunction>
    185c:	00 97       	sbiw	r24, 0x00	; 0
    185e:	11 f0       	breq	.+4      	; 0x1864 <os_dispatcher+0x24>
    1860:	fc 01       	movw	r30, r24
    1862:	19 95       	eicall
    1864:	8c 2f       	mov	r24, r28
    1866:	b6 df       	rcall	.-148    	; 0x17d4 <os_kill>
    1868:	ac df       	rcall	.-168    	; 0x17c2 <os_yield>
    186a:	8c e1       	ldi	r24, 0x1C	; 28
    186c:	92 e0       	ldi	r25, 0x02	; 2
    186e:	9f 93       	push	r25
    1870:	8f 93       	push	r24
    1872:	5e d4       	rcall	.+2236   	; 0x2130 <printf>
    1874:	0f 90       	pop	r0
    1876:	0f 90       	pop	r0
    1878:	f8 cf       	rjmp	.-16     	; 0x186a <os_dispatcher+0x2a>

0000187a <os_scheduler_RoundRobin>:
    187a:	cf 93       	push	r28
    187c:	df 93       	push	r29
    187e:	ec 01       	movw	r28, r24
    1880:	bc dc       	rcall	.-1672   	; 0x11fa <os_getCurrentProc>
    1882:	91 e0       	ldi	r25, 0x01	; 1
    1884:	98 0f       	add	r25, r24
    1886:	0f c0       	rjmp	.+30     	; 0x18a6 <os_scheduler_RoundRobin+0x2c>
    1888:	29 2f       	mov	r18, r25
    188a:	30 e0       	ldi	r19, 0x00	; 0
    188c:	f9 01       	movw	r30, r18
    188e:	ee 0f       	add	r30, r30
    1890:	ff 1f       	adc	r31, r31
    1892:	e2 0f       	add	r30, r18
    1894:	f3 1f       	adc	r31, r19
    1896:	ee 0f       	add	r30, r30
    1898:	ff 1f       	adc	r31, r31
    189a:	ec 0f       	add	r30, r28
    189c:	fd 1f       	adc	r31, r29
    189e:	21 81       	ldd	r18, Z+1	; 0x01
    18a0:	21 30       	cpi	r18, 0x01	; 1
    18a2:	f9 f0       	breq	.+62     	; 0x18e2 <os_scheduler_RoundRobin+0x68>
    18a4:	9f 5f       	subi	r25, 0xFF	; 255
    18a6:	98 30       	cpi	r25, 0x08	; 8
    18a8:	78 f3       	brcs	.-34     	; 0x1888 <os_scheduler_RoundRobin+0xe>
    18aa:	91 e0       	ldi	r25, 0x01	; 1
    18ac:	0f c0       	rjmp	.+30     	; 0x18cc <os_scheduler_RoundRobin+0x52>
    18ae:	29 2f       	mov	r18, r25
    18b0:	30 e0       	ldi	r19, 0x00	; 0
    18b2:	f9 01       	movw	r30, r18
    18b4:	ee 0f       	add	r30, r30
    18b6:	ff 1f       	adc	r31, r31
    18b8:	e2 0f       	add	r30, r18
    18ba:	f3 1f       	adc	r31, r19
    18bc:	ee 0f       	add	r30, r30
    18be:	ff 1f       	adc	r31, r31
    18c0:	ec 0f       	add	r30, r28
    18c2:	fd 1f       	adc	r31, r29
    18c4:	21 81       	ldd	r18, Z+1	; 0x01
    18c6:	21 30       	cpi	r18, 0x01	; 1
    18c8:	71 f0       	breq	.+28     	; 0x18e6 <os_scheduler_RoundRobin+0x6c>
    18ca:	9f 5f       	subi	r25, 0xFF	; 255
    18cc:	49 2f       	mov	r20, r25
    18ce:	50 e0       	ldi	r21, 0x00	; 0
    18d0:	28 2f       	mov	r18, r24
    18d2:	30 e0       	ldi	r19, 0x00	; 0
    18d4:	2f 5f       	subi	r18, 0xFF	; 255
    18d6:	3f 4f       	sbci	r19, 0xFF	; 255
    18d8:	42 17       	cp	r20, r18
    18da:	53 07       	cpc	r21, r19
    18dc:	44 f3       	brlt	.-48     	; 0x18ae <os_scheduler_RoundRobin+0x34>
    18de:	80 e0       	ldi	r24, 0x00	; 0
    18e0:	03 c0       	rjmp	.+6      	; 0x18e8 <os_scheduler_RoundRobin+0x6e>
    18e2:	89 2f       	mov	r24, r25
    18e4:	01 c0       	rjmp	.+2      	; 0x18e8 <os_scheduler_RoundRobin+0x6e>
    18e6:	89 2f       	mov	r24, r25
    18e8:	df 91       	pop	r29
    18ea:	cf 91       	pop	r28
    18ec:	08 95       	ret

000018ee <os_resetProcessSchedulingInformation>:
    18ee:	cf 93       	push	r28
    18f0:	df 93       	push	r29
    18f2:	88 23       	and	r24, r24
    18f4:	01 f1       	breq	.+64     	; 0x1936 <os_resetProcessSchedulingInformation+0x48>
    18f6:	d6 2f       	mov	r29, r22
    18f8:	c0 e0       	ldi	r28, 0x00	; 0
    18fa:	09 c0       	rjmp	.+18     	; 0x190e <os_resetProcessSchedulingInformation+0x20>
    18fc:	2b e0       	ldi	r18, 0x0B	; 11
    18fe:	c2 9f       	mul	r28, r18
    1900:	c0 01       	movw	r24, r0
    1902:	11 24       	eor	r1, r1
    1904:	6d 2f       	mov	r22, r29
    1906:	8b 52       	subi	r24, 0x2B	; 43
    1908:	9c 4f       	sbci	r25, 0xFC	; 252
    190a:	59 d8       	rcall	.-3918   	; 0x9be <rq_remove>
    190c:	cf 5f       	subi	r28, 0xFF	; 255
    190e:	c3 30       	cpi	r28, 0x03	; 3
    1910:	a8 f3       	brcs	.-22     	; 0x18fc <os_resetProcessSchedulingInformation+0xe>
    1912:	8d 2f       	mov	r24, r29
    1914:	61 dc       	rcall	.-1854   	; 0x11d8 <os_getProcessSlot>
    1916:	fc 01       	movw	r30, r24
    1918:	81 81       	ldd	r24, Z+1	; 0x01
    191a:	81 30       	cpi	r24, 0x01	; 1
    191c:	61 f4       	brne	.+24     	; 0x1936 <os_resetProcessSchedulingInformation+0x48>
    191e:	8d 2f       	mov	r24, r29
    1920:	5b dc       	rcall	.-1866   	; 0x11d8 <os_getProcessSlot>
    1922:	fc 01       	movw	r30, r24
    1924:	84 81       	ldd	r24, Z+4	; 0x04
    1926:	fb e0       	ldi	r31, 0x0B	; 11
    1928:	8f 9f       	mul	r24, r31
    192a:	c0 01       	movw	r24, r0
    192c:	11 24       	eor	r1, r1
    192e:	6d 2f       	mov	r22, r29
    1930:	8b 52       	subi	r24, 0x2B	; 43
    1932:	9c 4f       	sbci	r25, 0xFC	; 252
    1934:	1f d8       	rcall	.-4034   	; 0x974 <rq_push>
    1936:	df 91       	pop	r29
    1938:	cf 91       	pop	r28
    193a:	08 95       	ret

0000193c <os_resetSchedulingInformation>:
    193c:	cf 93       	push	r28
    193e:	88 23       	and	r24, r24
    1940:	21 f1       	breq	.+72     	; 0x198a <os_resetSchedulingInformation+0x4e>
    1942:	c0 e0       	ldi	r28, 0x00	; 0
    1944:	08 c0       	rjmp	.+16     	; 0x1956 <os_resetSchedulingInformation+0x1a>
    1946:	2b e0       	ldi	r18, 0x0B	; 11
    1948:	c2 9f       	mul	r28, r18
    194a:	c0 01       	movw	r24, r0
    194c:	11 24       	eor	r1, r1
    194e:	8b 52       	subi	r24, 0x2B	; 43
    1950:	9c 4f       	sbci	r25, 0xFC	; 252
    1952:	31 d8       	rcall	.-3998   	; 0x9b6 <rq_clear>
    1954:	cf 5f       	subi	r28, 0xFF	; 255
    1956:	c3 30       	cpi	r28, 0x03	; 3
    1958:	b0 f3       	brcs	.-20     	; 0x1946 <os_resetSchedulingInformation+0xa>
    195a:	c1 e0       	ldi	r28, 0x01	; 1
    195c:	14 c0       	rjmp	.+40     	; 0x1986 <os_resetSchedulingInformation+0x4a>
    195e:	8c 2f       	mov	r24, r28
    1960:	3b dc       	rcall	.-1930   	; 0x11d8 <os_getProcessSlot>
    1962:	fc 01       	movw	r30, r24
    1964:	81 81       	ldd	r24, Z+1	; 0x01
    1966:	81 30       	cpi	r24, 0x01	; 1
    1968:	69 f4       	brne	.+26     	; 0x1984 <os_resetSchedulingInformation+0x48>
    196a:	8c 2f       	mov	r24, r28
    196c:	35 dc       	rcall	.-1942   	; 0x11d8 <os_getProcessSlot>
    196e:	fc 01       	movw	r30, r24
    1970:	84 81       	ldd	r24, Z+4	; 0x04
    1972:	fb e0       	ldi	r31, 0x0B	; 11
    1974:	8f 9f       	mul	r24, r31
    1976:	c0 01       	movw	r24, r0
    1978:	11 24       	eor	r1, r1
    197a:	6c 2f       	mov	r22, r28
    197c:	8b 52       	subi	r24, 0x2B	; 43
    197e:	9c 4f       	sbci	r25, 0xFC	; 252
    1980:	0e 94 ba 04 	call	0x974	; 0x974 <rq_push>
    1984:	cf 5f       	subi	r28, 0xFF	; 255
    1986:	c8 30       	cpi	r28, 0x08	; 8
    1988:	50 f3       	brcs	.-44     	; 0x195e <os_resetSchedulingInformation+0x22>
    198a:	cf 91       	pop	r28
    198c:	08 95       	ret

0000198e <os_scheduler_DynamicPriorityRoundRobin>:
    198e:	df 92       	push	r13
    1990:	ef 92       	push	r14
    1992:	ff 92       	push	r15
    1994:	0f 93       	push	r16
    1996:	1f 93       	push	r17
    1998:	cf 93       	push	r28
    199a:	df 93       	push	r29
    199c:	d6 2e       	mov	r13, r22
    199e:	c0 e0       	ldi	r28, 0x00	; 0
    19a0:	d0 e0       	ldi	r29, 0x00	; 0
    19a2:	21 c0       	rjmp	.+66     	; 0x19e6 <os_scheduler_DynamicPriorityRoundRobin+0x58>
    19a4:	7e 01       	movw	r14, r28
    19a6:	2f ef       	ldi	r18, 0xFF	; 255
    19a8:	e2 1a       	sub	r14, r18
    19aa:	f2 0a       	sbc	r15, r18
    19ac:	8b e0       	ldi	r24, 0x0B	; 11
    19ae:	8e 9d       	mul	r24, r14
    19b0:	80 01       	movw	r16, r0
    19b2:	8f 9d       	mul	r24, r15
    19b4:	10 0d       	add	r17, r0
    19b6:	11 24       	eor	r1, r1
    19b8:	0b 52       	subi	r16, 0x2B	; 43
    19ba:	1c 4f       	sbci	r17, 0xFC	; 252
    19bc:	c8 01       	movw	r24, r16
    19be:	0e 94 80 04 	call	0x900	; 0x900 <rq_isEmpty>
    19c2:	81 11       	cpse	r24, r1
    19c4:	0f c0       	rjmp	.+30     	; 0x19e4 <os_scheduler_DynamicPriorityRoundRobin+0x56>
    19c6:	c8 01       	movw	r24, r16
    19c8:	0e 94 87 04 	call	0x90e	; 0x90e <rq_pop>
    19cc:	9b e0       	ldi	r25, 0x0B	; 11
    19ce:	9c 9f       	mul	r25, r28
    19d0:	90 01       	movw	r18, r0
    19d2:	9d 9f       	mul	r25, r29
    19d4:	30 0d       	add	r19, r0
    19d6:	11 24       	eor	r1, r1
    19d8:	68 2f       	mov	r22, r24
    19da:	c9 01       	movw	r24, r18
    19dc:	8b 52       	subi	r24, 0x2B	; 43
    19de:	9c 4f       	sbci	r25, 0xFC	; 252
    19e0:	0e 94 ba 04 	call	0x974	; 0x974 <rq_push>
    19e4:	e7 01       	movw	r28, r14
    19e6:	c2 30       	cpi	r28, 0x02	; 2
    19e8:	d1 05       	cpc	r29, r1
    19ea:	e4 f2       	brlt	.-72     	; 0x19a4 <os_scheduler_DynamicPriorityRoundRobin+0x16>
    19ec:	8d 2d       	mov	r24, r13
    19ee:	f4 db       	rcall	.-2072   	; 0x11d8 <os_getProcessSlot>
    19f0:	fc 01       	movw	r30, r24
    19f2:	81 81       	ldd	r24, Z+1	; 0x01
    19f4:	81 30       	cpi	r24, 0x01	; 1
    19f6:	69 f4       	brne	.+26     	; 0x1a12 <os_scheduler_DynamicPriorityRoundRobin+0x84>
    19f8:	8d 2d       	mov	r24, r13
    19fa:	ee db       	rcall	.-2084   	; 0x11d8 <os_getProcessSlot>
    19fc:	fc 01       	movw	r30, r24
    19fe:	84 81       	ldd	r24, Z+4	; 0x04
    1a00:	fb e0       	ldi	r31, 0x0B	; 11
    1a02:	8f 9f       	mul	r24, r31
    1a04:	c0 01       	movw	r24, r0
    1a06:	11 24       	eor	r1, r1
    1a08:	6d 2d       	mov	r22, r13
    1a0a:	8b 52       	subi	r24, 0x2B	; 43
    1a0c:	9c 4f       	sbci	r25, 0xFC	; 252
    1a0e:	0e 94 ba 04 	call	0x974	; 0x974 <rq_push>
    1a12:	c0 e0       	ldi	r28, 0x00	; 0
    1a14:	d0 e0       	ldi	r29, 0x00	; 0
    1a16:	12 c0       	rjmp	.+36     	; 0x1a3c <os_scheduler_DynamicPriorityRoundRobin+0xae>
    1a18:	8b e0       	ldi	r24, 0x0B	; 11
    1a1a:	8c 9f       	mul	r24, r28
    1a1c:	80 01       	movw	r16, r0
    1a1e:	8d 9f       	mul	r24, r29
    1a20:	10 0d       	add	r17, r0
    1a22:	11 24       	eor	r1, r1
    1a24:	0b 52       	subi	r16, 0x2B	; 43
    1a26:	1c 4f       	sbci	r17, 0xFC	; 252
    1a28:	c8 01       	movw	r24, r16
    1a2a:	0e 94 80 04 	call	0x900	; 0x900 <rq_isEmpty>
    1a2e:	81 11       	cpse	r24, r1
    1a30:	04 c0       	rjmp	.+8      	; 0x1a3a <os_scheduler_DynamicPriorityRoundRobin+0xac>
    1a32:	c8 01       	movw	r24, r16
    1a34:	0e 94 87 04 	call	0x90e	; 0x90e <rq_pop>
    1a38:	05 c0       	rjmp	.+10     	; 0x1a44 <os_scheduler_DynamicPriorityRoundRobin+0xb6>
    1a3a:	21 96       	adiw	r28, 0x01	; 1
    1a3c:	c2 30       	cpi	r28, 0x02	; 2
    1a3e:	d1 05       	cpc	r29, r1
    1a40:	5c f3       	brlt	.-42     	; 0x1a18 <os_scheduler_DynamicPriorityRoundRobin+0x8a>
    1a42:	80 e0       	ldi	r24, 0x00	; 0
    1a44:	df 91       	pop	r29
    1a46:	cf 91       	pop	r28
    1a48:	1f 91       	pop	r17
    1a4a:	0f 91       	pop	r16
    1a4c:	ff 90       	pop	r15
    1a4e:	ef 90       	pop	r14
    1a50:	df 90       	pop	r13
    1a52:	08 95       	ret

00001a54 <strategyImplemented>:
    1a54:	ff 92       	push	r15
    1a56:	0f 93       	push	r16
    1a58:	1f 93       	push	r17
    1a5a:	cf 93       	push	r28
    1a5c:	df 93       	push	r29
    1a5e:	cd b7       	in	r28, 0x3d	; 61
    1a60:	de b7       	in	r29, 0x3e	; 62
    1a62:	e0 97       	sbiw	r28, 0x30	; 48
    1a64:	0f b6       	in	r0, 0x3f	; 63
    1a66:	f8 94       	cli
    1a68:	de bf       	out	0x3e, r29	; 62
    1a6a:	0f be       	out	0x3f, r0	; 63
    1a6c:	cd bf       	out	0x3d, r28	; 61
    1a6e:	f1 2c       	mov	r15, r1
    1a70:	18 c0       	rjmp	.+48     	; 0x1aa2 <strategyImplemented+0x4e>
    1a72:	0f 2d       	mov	r16, r15
    1a74:	10 e0       	ldi	r17, 0x00	; 0
    1a76:	8f 2d       	mov	r24, r15
    1a78:	af db       	rcall	.-2210   	; 0x11d8 <os_getProcessSlot>
    1a7a:	fc 01       	movw	r30, r24
    1a7c:	d8 01       	movw	r26, r16
    1a7e:	aa 0f       	add	r26, r26
    1a80:	bb 1f       	adc	r27, r27
    1a82:	a0 0f       	add	r26, r16
    1a84:	b1 1f       	adc	r27, r17
    1a86:	aa 0f       	add	r26, r26
    1a88:	bb 1f       	adc	r27, r27
    1a8a:	81 e0       	ldi	r24, 0x01	; 1
    1a8c:	90 e0       	ldi	r25, 0x00	; 0
    1a8e:	8c 0f       	add	r24, r28
    1a90:	9d 1f       	adc	r25, r29
    1a92:	a8 0f       	add	r26, r24
    1a94:	b9 1f       	adc	r27, r25
    1a96:	96 e0       	ldi	r25, 0x06	; 6
    1a98:	01 90       	ld	r0, Z+
    1a9a:	0d 92       	st	X+, r0
    1a9c:	9a 95       	dec	r25
    1a9e:	e1 f7       	brne	.-8      	; 0x1a98 <strategyImplemented+0x44>
    1aa0:	f3 94       	inc	r15
    1aa2:	97 e0       	ldi	r25, 0x07	; 7
    1aa4:	9f 15       	cp	r25, r15
    1aa6:	28 f7       	brcc	.-54     	; 0x1a72 <strategyImplemented+0x1e>
    1aa8:	b2 db       	rcall	.-2204   	; 0x120e <os_getSchedulingStrategy>
    1aaa:	88 23       	and	r24, r24
    1aac:	19 f0       	breq	.+6      	; 0x1ab4 <strategyImplemented+0x60>
    1aae:	81 30       	cpi	r24, 0x01	; 1
    1ab0:	41 f0       	breq	.+16     	; 0x1ac2 <strategyImplemented+0x6e>
    1ab2:	0e c0       	rjmp	.+28     	; 0x1ad0 <strategyImplemented+0x7c>
    1ab4:	a2 db       	rcall	.-2236   	; 0x11fa <os_getCurrentProc>
    1ab6:	68 2f       	mov	r22, r24
    1ab8:	ce 01       	movw	r24, r28
    1aba:	01 96       	adiw	r24, 0x01	; 1
    1abc:	de de       	rcall	.-580    	; 0x187a <os_scheduler_RoundRobin>
    1abe:	18 2f       	mov	r17, r24
    1ac0:	0e c0       	rjmp	.+28     	; 0x1ade <strategyImplemented+0x8a>
    1ac2:	9b db       	rcall	.-2250   	; 0x11fa <os_getCurrentProc>
    1ac4:	68 2f       	mov	r22, r24
    1ac6:	ce 01       	movw	r24, r28
    1ac8:	01 96       	adiw	r24, 0x01	; 1
    1aca:	61 df       	rcall	.-318    	; 0x198e <os_scheduler_DynamicPriorityRoundRobin>
    1acc:	18 2f       	mov	r17, r24
    1ace:	07 c0       	rjmp	.+14     	; 0x1ade <strategyImplemented+0x8a>
    1ad0:	0e 94 99 03 	call	0x732	; 0x732 <lcd_clear>
    1ad4:	8a ed       	ldi	r24, 0xDA	; 218
    1ad6:	94 e0       	ldi	r25, 0x04	; 4
    1ad8:	0e 94 25 04 	call	0x84a	; 0x84a <lcd_writeProgString>
    1adc:	ff cf       	rjmp	.-2      	; 0x1adc <strategyImplemented+0x88>
    1ade:	97 db       	rcall	.-2258   	; 0x120e <os_getSchedulingStrategy>
    1ae0:	2d df       	rcall	.-422    	; 0x193c <os_resetSchedulingInformation>
    1ae2:	11 11       	cpse	r17, r1
    1ae4:	02 c0       	rjmp	.+4      	; 0x1aea <strategyImplemented+0x96>
    1ae6:	80 e0       	ldi	r24, 0x00	; 0
    1ae8:	01 c0       	rjmp	.+2      	; 0x1aec <strategyImplemented+0x98>
    1aea:	81 e0       	ldi	r24, 0x01	; 1
    1aec:	e0 96       	adiw	r28, 0x30	; 48
    1aee:	0f b6       	in	r0, 0x3f	; 63
    1af0:	f8 94       	cli
    1af2:	de bf       	out	0x3e, r29	; 62
    1af4:	0f be       	out	0x3f, r0	; 63
    1af6:	cd bf       	out	0x3d, r28	; 61
    1af8:	df 91       	pop	r29
    1afa:	cf 91       	pop	r28
    1afc:	1f 91       	pop	r17
    1afe:	0f 91       	pop	r16
    1b00:	ff 90       	pop	r15
    1b02:	08 95       	ret

00001b04 <setActiveStrategy>:
    1b04:	cf 93       	push	r28
    1b06:	88 23       	and	r24, r24
    1b08:	19 f0       	breq	.+6      	; 0x1b10 <setActiveStrategy+0xc>
    1b0a:	81 30       	cpi	r24, 0x01	; 1
    1b0c:	49 f0       	breq	.+18     	; 0x1b20 <setActiveStrategy+0x1c>
    1b0e:	10 c0       	rjmp	.+32     	; 0x1b30 <setActiveStrategy+0x2c>
    1b10:	8f ec       	ldi	r24, 0xCF	; 207
    1b12:	94 e0       	ldi	r25, 0x04	; 4
    1b14:	0e 94 25 04 	call	0x84a	; 0x84a <lcd_writeProgString>
    1b18:	80 e0       	ldi	r24, 0x00	; 0
    1b1a:	72 db       	rcall	.-2332   	; 0x1200 <os_setSchedulingStrategy>
    1b1c:	c0 e0       	ldi	r28, 0x00	; 0
    1b1e:	09 c0       	rjmp	.+18     	; 0x1b32 <setActiveStrategy+0x2e>
    1b20:	84 eb       	ldi	r24, 0xB4	; 180
    1b22:	94 e0       	ldi	r25, 0x04	; 4
    1b24:	0e 94 25 04 	call	0x84a	; 0x84a <lcd_writeProgString>
    1b28:	81 e0       	ldi	r24, 0x01	; 1
    1b2a:	6a db       	rcall	.-2348   	; 0x1200 <os_setSchedulingStrategy>
    1b2c:	c1 e0       	ldi	r28, 0x01	; 1
    1b2e:	01 c0       	rjmp	.+2      	; 0x1b32 <setActiveStrategy+0x2e>
    1b30:	c0 e0       	ldi	r28, 0x00	; 0
    1b32:	80 ed       	ldi	r24, 0xD0	; 208
    1b34:	97 e0       	ldi	r25, 0x07	; 7
    1b36:	3a da       	rcall	.-2956   	; 0xfac <delayMs>
    1b38:	8c 2f       	mov	r24, r28
    1b3a:	cf 91       	pop	r28
    1b3c:	08 95       	ret

00001b3e <performStrategyTest>:
    1b3e:	cf 93       	push	r28
    1b40:	c8 2f       	mov	r28, r24
    1b42:	0e 94 99 03 	call	0x732	; 0x732 <lcd_clear>
    1b46:	8c 2f       	mov	r24, r28
    1b48:	dd df       	rcall	.-70     	; 0x1b04 <setActiveStrategy>
    1b4a:	c8 2f       	mov	r28, r24
    1b4c:	83 df       	rcall	.-250    	; 0x1a54 <strategyImplemented>
    1b4e:	81 11       	cpse	r24, r1
    1b50:	0a c0       	rjmp	.+20     	; 0x1b66 <performStrategyTest+0x28>
    1b52:	0e 94 99 03 	call	0x732	; 0x732 <lcd_clear>
    1b56:	89 e9       	ldi	r24, 0x99	; 153
    1b58:	94 e0       	ldi	r25, 0x04	; 4
    1b5a:	0e 94 25 04 	call	0x84a	; 0x84a <lcd_writeProgString>
    1b5e:	80 ed       	ldi	r24, 0xD0	; 208
    1b60:	97 e0       	ldi	r25, 0x07	; 7
    1b62:	24 da       	rcall	.-3000   	; 0xfac <delayMs>
    1b64:	67 c0       	rjmp	.+206    	; 0x1c34 <performStrategyTest+0xf6>
    1b66:	10 92 7d 03 	sts	0x037D, r1	; 0x80037d <i>
    1b6a:	0c c0       	rjmp	.+24     	; 0x1b84 <performStrategyTest+0x46>
    1b6c:	e0 91 7d 03 	lds	r30, 0x037D	; 0x80037d <i>
    1b70:	81 e0       	ldi	r24, 0x01	; 1
    1b72:	8e 0f       	add	r24, r30
    1b74:	80 93 7d 03 	sts	0x037D, r24	; 0x80037d <i>
    1b78:	f0 e0       	ldi	r31, 0x00	; 0
    1b7a:	ea 50       	subi	r30, 0x0A	; 10
    1b7c:	fc 4f       	sbci	r31, 0xFC	; 252
    1b7e:	81 e0       	ldi	r24, 0x01	; 1
    1b80:	80 83       	st	Z, r24
    1b82:	44 dd       	rcall	.-1400   	; 0x160c <__vector_13>
    1b84:	80 91 7d 03 	lds	r24, 0x037D	; 0x80037d <i>
    1b88:	80 32       	cpi	r24, 0x20	; 32
    1b8a:	80 f3       	brcs	.-32     	; 0x1b6c <performStrategyTest+0x2e>
    1b8c:	0e 94 99 03 	call	0x732	; 0x732 <lcd_clear>
    1b90:	10 92 7d 03 	sts	0x037D, r1	; 0x80037d <i>
    1b94:	0e c0       	rjmp	.+28     	; 0x1bb2 <performStrategyTest+0x74>
    1b96:	e0 91 7d 03 	lds	r30, 0x037D	; 0x80037d <i>
    1b9a:	f0 e0       	ldi	r31, 0x00	; 0
    1b9c:	ea 50       	subi	r30, 0x0A	; 10
    1b9e:	fc 4f       	sbci	r31, 0xFC	; 252
    1ba0:	80 81       	ld	r24, Z
    1ba2:	90 e0       	ldi	r25, 0x00	; 0
    1ba4:	0e 94 3b 04 	call	0x876	; 0x876 <lcd_writeDec>
    1ba8:	80 91 7d 03 	lds	r24, 0x037D	; 0x80037d <i>
    1bac:	8f 5f       	subi	r24, 0xFF	; 255
    1bae:	80 93 7d 03 	sts	0x037D, r24	; 0x80037d <i>
    1bb2:	80 91 7d 03 	lds	r24, 0x037D	; 0x80037d <i>
    1bb6:	80 32       	cpi	r24, 0x20	; 32
    1bb8:	70 f3       	brcs	.-36     	; 0x1b96 <performStrategyTest+0x58>
    1bba:	10 92 7d 03 	sts	0x037D, r1	; 0x80037d <i>
    1bbe:	33 c0       	rjmp	.+102    	; 0x1c26 <performStrategyTest+0xe8>
    1bc0:	e0 91 7d 03 	lds	r30, 0x037D	; 0x80037d <i>
    1bc4:	f0 e0       	ldi	r31, 0x00	; 0
    1bc6:	ea 50       	subi	r30, 0x0A	; 10
    1bc8:	fc 4f       	sbci	r31, 0xFC	; 252
    1bca:	80 81       	ld	r24, Z
    1bcc:	90 91 7d 03 	lds	r25, 0x037D	; 0x80037d <i>
    1bd0:	20 e2       	ldi	r18, 0x20	; 32
    1bd2:	c2 9f       	mul	r28, r18
    1bd4:	f0 01       	movw	r30, r0
    1bd6:	11 24       	eor	r1, r1
    1bd8:	e9 0f       	add	r30, r25
    1bda:	f1 1d       	adc	r31, r1
    1bdc:	e5 51       	subi	r30, 0x15	; 21
    1bde:	fb 4f       	sbci	r31, 0xFB	; 251
    1be0:	e4 91       	lpm	r30, Z
    1be2:	8e 17       	cp	r24, r30
    1be4:	71 f0       	breq	.+28     	; 0x1c02 <performStrategyTest+0xc4>
    1be6:	60 91 7d 03 	lds	r22, 0x037D	; 0x80037d <i>
    1bea:	90 91 7d 03 	lds	r25, 0x037D	; 0x80037d <i>
    1bee:	6f 70       	andi	r22, 0x0F	; 15
    1bf0:	81 e0       	ldi	r24, 0x01	; 1
    1bf2:	90 31       	cpi	r25, 0x10	; 16
    1bf4:	08 f4       	brcc	.+2      	; 0x1bf8 <performStrategyTest+0xba>
    1bf6:	80 e0       	ldi	r24, 0x00	; 0
    1bf8:	0e 94 af 03 	call	0x75e	; 0x75e <lcd_goto>
    1bfc:	0e 94 ac 03 	call	0x758	; 0x758 <lcd_blinkOn>
    1c00:	ff cf       	rjmp	.-2      	; 0x1c00 <performStrategyTest+0xc2>
    1c02:	80 91 7d 03 	lds	r24, 0x037D	; 0x80037d <i>
    1c06:	8f 31       	cpi	r24, 0x1F	; 31
    1c08:	49 f4       	brne	.+18     	; 0x1c1c <performStrategyTest+0xde>
    1c0a:	80 ed       	ldi	r24, 0xD0	; 208
    1c0c:	97 e0       	ldi	r25, 0x07	; 7
    1c0e:	ce d9       	rcall	.-3172   	; 0xfac <delayMs>
    1c10:	0e 94 99 03 	call	0x732	; 0x732 <lcd_clear>
    1c14:	86 e9       	ldi	r24, 0x96	; 150
    1c16:	94 e0       	ldi	r25, 0x04	; 4
    1c18:	0e 94 25 04 	call	0x84a	; 0x84a <lcd_writeProgString>
    1c1c:	80 91 7d 03 	lds	r24, 0x037D	; 0x80037d <i>
    1c20:	8f 5f       	subi	r24, 0xFF	; 255
    1c22:	80 93 7d 03 	sts	0x037D, r24	; 0x80037d <i>
    1c26:	80 91 7d 03 	lds	r24, 0x037D	; 0x80037d <i>
    1c2a:	80 32       	cpi	r24, 0x20	; 32
    1c2c:	48 f2       	brcs	.-110    	; 0x1bc0 <performStrategyTest+0x82>
    1c2e:	80 ed       	ldi	r24, 0xD0	; 208
    1c30:	97 e0       	ldi	r25, 0x07	; 7
    1c32:	bc d9       	rcall	.-3208   	; 0xfac <delayMs>
    1c34:	cf 91       	pop	r28
    1c36:	08 95       	ret

00001c38 <performSchedulabilityTest>:
    1c38:	0f 93       	push	r16
    1c3a:	1f 93       	push	r17
    1c3c:	cf 93       	push	r28
    1c3e:	df 93       	push	r29
    1c40:	18 2f       	mov	r17, r24
    1c42:	d6 2f       	mov	r29, r22
    1c44:	0e 94 99 03 	call	0x732	; 0x732 <lcd_clear>
    1c48:	81 2f       	mov	r24, r17
    1c4a:	5c df       	rcall	.-328    	; 0x1b04 <setActiveStrategy>
    1c4c:	03 df       	rcall	.-506    	; 0x1a54 <strategyImplemented>
    1c4e:	81 11       	cpse	r24, r1
    1c50:	3d c0       	rjmp	.+122    	; 0x1ccc <performSchedulabilityTest+0x94>
    1c52:	0e 94 99 03 	call	0x732	; 0x732 <lcd_clear>
    1c56:	8b e7       	ldi	r24, 0x7B	; 123
    1c58:	94 e0       	ldi	r25, 0x04	; 4
    1c5a:	0e 94 25 04 	call	0x84a	; 0x84a <lcd_writeProgString>
    1c5e:	80 ed       	ldi	r24, 0xD0	; 208
    1c60:	97 e0       	ldi	r25, 0x07	; 7
    1c62:	a4 d9       	rcall	.-3256   	; 0xfac <delayMs>
    1c64:	7c c0       	rjmp	.+248    	; 0x1d5e <performSchedulabilityTest+0x126>
    1c66:	10 92 7d 03 	sts	0x037D, r1	; 0x80037d <i>
    1c6a:	0c c0       	rjmp	.+24     	; 0x1c84 <performSchedulabilityTest+0x4c>
    1c6c:	e0 91 7d 03 	lds	r30, 0x037D	; 0x80037d <i>
    1c70:	81 e0       	ldi	r24, 0x01	; 1
    1c72:	8e 0f       	add	r24, r30
    1c74:	80 93 7d 03 	sts	0x037D, r24	; 0x80037d <i>
    1c78:	f0 e0       	ldi	r31, 0x00	; 0
    1c7a:	ea 50       	subi	r30, 0x0A	; 10
    1c7c:	fc 4f       	sbci	r31, 0xFC	; 252
    1c7e:	81 e0       	ldi	r24, 0x01	; 1
    1c80:	80 83       	st	Z, r24
    1c82:	c4 dc       	rcall	.-1656   	; 0x160c <__vector_13>
    1c84:	80 91 7d 03 	lds	r24, 0x037D	; 0x80037d <i>
    1c88:	80 32       	cpi	r24, 0x20	; 32
    1c8a:	80 f3       	brcs	.-32     	; 0x1c6c <performSchedulabilityTest+0x34>
    1c8c:	80 e0       	ldi	r24, 0x00	; 0
    1c8e:	0e c0       	rjmp	.+28     	; 0x1cac <performSchedulabilityTest+0x74>
    1c90:	e8 2f       	mov	r30, r24
    1c92:	f0 e0       	ldi	r31, 0x00	; 0
    1c94:	ea 50       	subi	r30, 0x0A	; 10
    1c96:	fc 4f       	sbci	r31, 0xFC	; 252
    1c98:	90 81       	ld	r25, Z
    1c9a:	21 e0       	ldi	r18, 0x01	; 1
    1c9c:	30 e0       	ldi	r19, 0x00	; 0
    1c9e:	02 c0       	rjmp	.+4      	; 0x1ca4 <performSchedulabilityTest+0x6c>
    1ca0:	22 0f       	add	r18, r18
    1ca2:	33 1f       	adc	r19, r19
    1ca4:	9a 95       	dec	r25
    1ca6:	e2 f7       	brpl	.-8      	; 0x1ca0 <performSchedulabilityTest+0x68>
    1ca8:	c2 2b       	or	r28, r18
    1caa:	8f 5f       	subi	r24, 0xFF	; 255
    1cac:	80 32       	cpi	r24, 0x20	; 32
    1cae:	80 f3       	brcs	.-32     	; 0x1c90 <performSchedulabilityTest+0x58>
    1cb0:	cd 13       	cpse	r28, r29
    1cb2:	0a c0       	rjmp	.+20     	; 0x1cc8 <performSchedulabilityTest+0x90>
    1cb4:	0e 94 99 03 	call	0x732	; 0x732 <lcd_clear>
    1cb8:	88 e7       	ldi	r24, 0x78	; 120
    1cba:	94 e0       	ldi	r25, 0x04	; 4
    1cbc:	0e 94 25 04 	call	0x84a	; 0x84a <lcd_writeProgString>
    1cc0:	80 ed       	ldi	r24, 0xD0	; 208
    1cc2:	97 e0       	ldi	r25, 0x07	; 7
    1cc4:	73 d9       	rcall	.-3354   	; 0xfac <delayMs>
    1cc6:	4b c0       	rjmp	.+150    	; 0x1d5e <performSchedulabilityTest+0x126>
    1cc8:	0f 5f       	subi	r16, 0xFF	; 255
    1cca:	02 c0       	rjmp	.+4      	; 0x1cd0 <performSchedulabilityTest+0x98>
    1ccc:	00 e0       	ldi	r16, 0x00	; 0
    1cce:	c0 e0       	ldi	r28, 0x00	; 0
    1cd0:	03 30       	cpi	r16, 0x03	; 3
    1cd2:	48 f2       	brcs	.-110    	; 0x1c66 <performSchedulabilityTest+0x2e>
    1cd4:	0c 2f       	mov	r16, r28
    1cd6:	00 95       	com	r16
    1cd8:	0d 23       	and	r16, r29
    1cda:	d0 95       	com	r29
    1cdc:	cd 23       	and	r28, r29
    1cde:	0e 94 99 03 	call	0x732	; 0x732 <lcd_clear>
    1ce2:	11 23       	and	r17, r17
    1ce4:	19 f0       	breq	.+6      	; 0x1cec <performSchedulabilityTest+0xb4>
    1ce6:	11 30       	cpi	r17, 0x01	; 1
    1ce8:	31 f0       	breq	.+12     	; 0x1cf6 <performSchedulabilityTest+0xbe>
    1cea:	09 c0       	rjmp	.+18     	; 0x1cfe <performSchedulabilityTest+0xc6>
    1cec:	85 e6       	ldi	r24, 0x65	; 101
    1cee:	94 e0       	ldi	r25, 0x04	; 4
    1cf0:	0e 94 25 04 	call	0x84a	; 0x84a <lcd_writeProgString>
    1cf4:	04 c0       	rjmp	.+8      	; 0x1cfe <performSchedulabilityTest+0xc6>
    1cf6:	88 e5       	ldi	r24, 0x58	; 88
    1cf8:	94 e0       	ldi	r25, 0x04	; 4
    1cfa:	0e 94 25 04 	call	0x84a	; 0x84a <lcd_writeProgString>
    1cfe:	0e 94 e1 03 	call	0x7c2	; 0x7c2 <lcd_line2>
    1d02:	81 e0       	ldi	r24, 0x01	; 1
    1d04:	29 c0       	rjmp	.+82     	; 0x1d58 <performSchedulabilityTest+0x120>
    1d06:	20 2f       	mov	r18, r16
    1d08:	30 e0       	ldi	r19, 0x00	; 0
    1d0a:	08 2e       	mov	r0, r24
    1d0c:	02 c0       	rjmp	.+4      	; 0x1d12 <performSchedulabilityTest+0xda>
    1d0e:	35 95       	asr	r19
    1d10:	27 95       	ror	r18
    1d12:	0a 94       	dec	r0
    1d14:	e2 f7       	brpl	.-8      	; 0x1d0e <performSchedulabilityTest+0xd6>
    1d16:	20 ff       	sbrs	r18, 0
    1d18:	0a c0       	rjmp	.+20     	; 0x1d2e <performSchedulabilityTest+0xf6>
    1d1a:	90 e0       	ldi	r25, 0x00	; 0
    1d1c:	0e 94 3b 04 	call	0x876	; 0x876 <lcd_writeDec>
    1d20:	0e 94 e1 03 	call	0x7c2	; 0x7c2 <lcd_line2>
    1d24:	88 e4       	ldi	r24, 0x48	; 72
    1d26:	94 e0       	ldi	r25, 0x04	; 4
    1d28:	0e 94 25 04 	call	0x84a	; 0x84a <lcd_writeProgString>
    1d2c:	17 c0       	rjmp	.+46     	; 0x1d5c <performSchedulabilityTest+0x124>
    1d2e:	2c 2f       	mov	r18, r28
    1d30:	30 e0       	ldi	r19, 0x00	; 0
    1d32:	08 2e       	mov	r0, r24
    1d34:	02 c0       	rjmp	.+4      	; 0x1d3a <performSchedulabilityTest+0x102>
    1d36:	35 95       	asr	r19
    1d38:	27 95       	ror	r18
    1d3a:	0a 94       	dec	r0
    1d3c:	e2 f7       	brpl	.-8      	; 0x1d36 <performSchedulabilityTest+0xfe>
    1d3e:	20 ff       	sbrs	r18, 0
    1d40:	0a c0       	rjmp	.+20     	; 0x1d56 <performSchedulabilityTest+0x11e>
    1d42:	90 e0       	ldi	r25, 0x00	; 0
    1d44:	0e 94 3b 04 	call	0x876	; 0x876 <lcd_writeDec>
    1d48:	0e 94 e1 03 	call	0x7c2	; 0x7c2 <lcd_line2>
    1d4c:	89 e3       	ldi	r24, 0x39	; 57
    1d4e:	94 e0       	ldi	r25, 0x04	; 4
    1d50:	0e 94 25 04 	call	0x84a	; 0x84a <lcd_writeProgString>
    1d54:	03 c0       	rjmp	.+6      	; 0x1d5c <performSchedulabilityTest+0x124>
    1d56:	8f 5f       	subi	r24, 0xFF	; 255
    1d58:	88 30       	cpi	r24, 0x08	; 8
    1d5a:	a8 f2       	brcs	.-86     	; 0x1d06 <performSchedulabilityTest+0xce>
    1d5c:	ff cf       	rjmp	.-2      	; 0x1d5c <performSchedulabilityTest+0x124>
    1d5e:	df 91       	pop	r29
    1d60:	cf 91       	pop	r28
    1d62:	1f 91       	pop	r17
    1d64:	0f 91       	pop	r16
    1d66:	08 95       	ret

00001d68 <performScheduleIdleTest>:
    1d68:	ef 92       	push	r14
    1d6a:	ff 92       	push	r15
    1d6c:	0f 93       	push	r16
    1d6e:	1f 93       	push	r17
    1d70:	cf 93       	push	r28
    1d72:	df 93       	push	r29
    1d74:	cd b7       	in	r28, 0x3d	; 61
    1d76:	de b7       	in	r29, 0x3e	; 62
    1d78:	28 97       	sbiw	r28, 0x08	; 8
    1d7a:	0f b6       	in	r0, 0x3f	; 63
    1d7c:	f8 94       	cli
    1d7e:	de bf       	out	0x3e, r29	; 62
    1d80:	0f be       	out	0x3f, r0	; 63
    1d82:	cd bf       	out	0x3d, r28	; 61
    1d84:	18 2f       	mov	r17, r24
    1d86:	0e 94 99 03 	call	0x732	; 0x732 <lcd_clear>
    1d8a:	81 2f       	mov	r24, r17
    1d8c:	bb de       	rcall	.-650    	; 0x1b04 <setActiveStrategy>
    1d8e:	62 de       	rcall	.-828    	; 0x1a54 <strategyImplemented>
    1d90:	81 11       	cpse	r24, r1
    1d92:	1d c0       	rjmp	.+58     	; 0x1dce <performScheduleIdleTest+0x66>
    1d94:	0e 94 99 03 	call	0x732	; 0x732 <lcd_clear>
    1d98:	8e e1       	ldi	r24, 0x1E	; 30
    1d9a:	94 e0       	ldi	r25, 0x04	; 4
    1d9c:	0e 94 25 04 	call	0x84a	; 0x84a <lcd_writeProgString>
    1da0:	80 ed       	ldi	r24, 0xD0	; 208
    1da2:	97 e0       	ldi	r25, 0x07	; 7
    1da4:	03 d9       	rcall	.-3578   	; 0xfac <delayMs>
    1da6:	63 c0       	rjmp	.+198    	; 0x1e6e <performScheduleIdleTest+0x106>
    1da8:	e0 2e       	mov	r14, r16
    1daa:	f1 2c       	mov	r15, r1
    1dac:	80 2f       	mov	r24, r16
    1dae:	14 da       	rcall	.-3032   	; 0x11d8 <os_getProcessSlot>
    1db0:	fc 01       	movw	r30, r24
    1db2:	81 81       	ldd	r24, Z+1	; 0x01
    1db4:	e1 e0       	ldi	r30, 0x01	; 1
    1db6:	f0 e0       	ldi	r31, 0x00	; 0
    1db8:	ec 0f       	add	r30, r28
    1dba:	fd 1f       	adc	r31, r29
    1dbc:	ee 0d       	add	r30, r14
    1dbe:	ff 1d       	adc	r31, r15
    1dc0:	80 83       	st	Z, r24
    1dc2:	80 2f       	mov	r24, r16
    1dc4:	09 da       	rcall	.-3054   	; 0x11d8 <os_getProcessSlot>
    1dc6:	fc 01       	movw	r30, r24
    1dc8:	11 82       	std	Z+1, r1	; 0x01
    1dca:	0f 5f       	subi	r16, 0xFF	; 255
    1dcc:	01 c0       	rjmp	.+2      	; 0x1dd0 <performScheduleIdleTest+0x68>
    1dce:	00 e0       	ldi	r16, 0x00	; 0
    1dd0:	08 30       	cpi	r16, 0x08	; 8
    1dd2:	50 f3       	brcs	.-44     	; 0x1da8 <performScheduleIdleTest+0x40>
    1dd4:	81 2f       	mov	r24, r17
    1dd6:	b2 dd       	rcall	.-1180   	; 0x193c <os_resetSchedulingInformation>
    1dd8:	00 e0       	ldi	r16, 0x00	; 0
    1dda:	f1 2c       	mov	r15, r1
    1ddc:	13 c0       	rjmp	.+38     	; 0x1e04 <performScheduleIdleTest+0x9c>
    1dde:	11 23       	and	r17, r17
    1de0:	19 f0       	breq	.+6      	; 0x1de8 <performScheduleIdleTest+0x80>
    1de2:	11 30       	cpi	r17, 0x01	; 1
    1de4:	39 f0       	breq	.+14     	; 0x1df4 <performScheduleIdleTest+0x8c>
    1de6:	0b c0       	rjmp	.+22     	; 0x1dfe <performScheduleIdleTest+0x96>
    1de8:	80 e0       	ldi	r24, 0x00	; 0
    1dea:	f6 d9       	rcall	.-3092   	; 0x11d8 <os_getProcessSlot>
    1dec:	60 2f       	mov	r22, r16
    1dee:	45 dd       	rcall	.-1398   	; 0x187a <os_scheduler_RoundRobin>
    1df0:	f8 2e       	mov	r15, r24
    1df2:	05 c0       	rjmp	.+10     	; 0x1dfe <performScheduleIdleTest+0x96>
    1df4:	80 e0       	ldi	r24, 0x00	; 0
    1df6:	f0 d9       	rcall	.-3104   	; 0x11d8 <os_getProcessSlot>
    1df8:	60 2f       	mov	r22, r16
    1dfa:	c9 dd       	rcall	.-1134   	; 0x198e <os_scheduler_DynamicPriorityRoundRobin>
    1dfc:	f8 2e       	mov	r15, r24
    1dfe:	f1 10       	cpse	r15, r1
    1e00:	03 c0       	rjmp	.+6      	; 0x1e08 <performScheduleIdleTest+0xa0>
    1e02:	0f 5f       	subi	r16, 0xFF	; 255
    1e04:	08 30       	cpi	r16, 0x08	; 8
    1e06:	58 f3       	brcs	.-42     	; 0x1dde <performScheduleIdleTest+0x76>
    1e08:	00 e0       	ldi	r16, 0x00	; 0
    1e0a:	0c c0       	rjmp	.+24     	; 0x1e24 <performScheduleIdleTest+0xbc>
    1e0c:	80 2f       	mov	r24, r16
    1e0e:	e4 d9       	rcall	.-3128   	; 0x11d8 <os_getProcessSlot>
    1e10:	e1 e0       	ldi	r30, 0x01	; 1
    1e12:	f0 e0       	ldi	r31, 0x00	; 0
    1e14:	ec 0f       	add	r30, r28
    1e16:	fd 1f       	adc	r31, r29
    1e18:	e0 0f       	add	r30, r16
    1e1a:	f1 1d       	adc	r31, r1
    1e1c:	20 81       	ld	r18, Z
    1e1e:	fc 01       	movw	r30, r24
    1e20:	21 83       	std	Z+1, r18	; 0x01
    1e22:	0f 5f       	subi	r16, 0xFF	; 255
    1e24:	08 30       	cpi	r16, 0x08	; 8
    1e26:	90 f3       	brcs	.-28     	; 0x1e0c <performScheduleIdleTest+0xa4>
    1e28:	81 2f       	mov	r24, r17
    1e2a:	88 dd       	rcall	.-1264   	; 0x193c <os_resetSchedulingInformation>
    1e2c:	f1 10       	cpse	r15, r1
    1e2e:	0a c0       	rjmp	.+20     	; 0x1e44 <performScheduleIdleTest+0xdc>
    1e30:	0e 94 99 03 	call	0x732	; 0x732 <lcd_clear>
    1e34:	8b e1       	ldi	r24, 0x1B	; 27
    1e36:	94 e0       	ldi	r25, 0x04	; 4
    1e38:	0e 94 25 04 	call	0x84a	; 0x84a <lcd_writeProgString>
    1e3c:	88 ee       	ldi	r24, 0xE8	; 232
    1e3e:	93 e0       	ldi	r25, 0x03	; 3
    1e40:	b5 d8       	rcall	.-3734   	; 0xfac <delayMs>
    1e42:	15 c0       	rjmp	.+42     	; 0x1e6e <performScheduleIdleTest+0x106>
    1e44:	0e 94 99 03 	call	0x732	; 0x732 <lcd_clear>
    1e48:	11 23       	and	r17, r17
    1e4a:	19 f0       	breq	.+6      	; 0x1e52 <performScheduleIdleTest+0xea>
    1e4c:	11 30       	cpi	r17, 0x01	; 1
    1e4e:	31 f0       	breq	.+12     	; 0x1e5c <performScheduleIdleTest+0xf4>
    1e50:	09 c0       	rjmp	.+18     	; 0x1e64 <performScheduleIdleTest+0xfc>
    1e52:	8e e0       	ldi	r24, 0x0E	; 14
    1e54:	94 e0       	ldi	r25, 0x04	; 4
    1e56:	0e 94 25 04 	call	0x84a	; 0x84a <lcd_writeProgString>
    1e5a:	04 c0       	rjmp	.+8      	; 0x1e64 <performScheduleIdleTest+0xfc>
    1e5c:	81 ef       	ldi	r24, 0xF1	; 241
    1e5e:	93 e0       	ldi	r25, 0x03	; 3
    1e60:	0e 94 25 04 	call	0x84a	; 0x84a <lcd_writeProgString>
    1e64:	8e ed       	ldi	r24, 0xDE	; 222
    1e66:	93 e0       	ldi	r25, 0x03	; 3
    1e68:	0e 94 25 04 	call	0x84a	; 0x84a <lcd_writeProgString>
    1e6c:	ff cf       	rjmp	.-2      	; 0x1e6c <performScheduleIdleTest+0x104>
    1e6e:	28 96       	adiw	r28, 0x08	; 8
    1e70:	0f b6       	in	r0, 0x3f	; 63
    1e72:	f8 94       	cli
    1e74:	de bf       	out	0x3e, r29	; 62
    1e76:	0f be       	out	0x3f, r0	; 63
    1e78:	cd bf       	out	0x3d, r28	; 61
    1e7a:	df 91       	pop	r29
    1e7c:	cf 91       	pop	r28
    1e7e:	1f 91       	pop	r17
    1e80:	0f 91       	pop	r16
    1e82:	ff 90       	pop	r15
    1e84:	ef 90       	pop	r14
    1e86:	08 95       	ret

00001e88 <prog1>:
    1e88:	cf 93       	push	r28
    1e8a:	df 93       	push	r29
    1e8c:	1f 92       	push	r1
    1e8e:	1f 92       	push	r1
    1e90:	cd b7       	in	r28, 0x3d	; 61
    1e92:	de b7       	in	r29, 0x3e	; 62
    1e94:	e1 eb       	ldi	r30, 0xB1	; 177
    1e96:	f0 e0       	ldi	r31, 0x00	; 0
    1e98:	80 81       	ld	r24, Z
    1e9a:	8b 7f       	andi	r24, 0xFB	; 251
    1e9c:	80 83       	st	Z, r24
    1e9e:	80 81       	ld	r24, Z
    1ea0:	8d 7f       	andi	r24, 0xFD	; 253
    1ea2:	80 83       	st	Z, r24
    1ea4:	80 81       	ld	r24, Z
    1ea6:	8e 7f       	andi	r24, 0xFE	; 254
    1ea8:	80 83       	st	Z, r24
    1eaa:	a7 d9       	rcall	.-3250   	; 0x11fa <os_getCurrentProc>
    1eac:	95 d9       	rcall	.-3286   	; 0x11d8 <os_getProcessSlot>
    1eae:	fc 01       	movw	r30, r24
    1eb0:	14 82       	std	Z+4, r1	; 0x04
    1eb2:	61 e0       	ldi	r22, 0x01	; 1
    1eb4:	82 e0       	ldi	r24, 0x02	; 2
    1eb6:	81 da       	rcall	.-2814   	; 0x13ba <os_exec>
    1eb8:	62 e0       	ldi	r22, 0x02	; 2
    1eba:	83 e0       	ldi	r24, 0x03	; 3
    1ebc:	7e da       	rcall	.-2820   	; 0x13ba <os_exec>
    1ebe:	19 82       	std	Y+1, r1	; 0x01
    1ec0:	81 e0       	ldi	r24, 0x01	; 1
    1ec2:	8a 83       	std	Y+2, r24	; 0x02
    1ec4:	0e 94 99 03 	call	0x732	; 0x732 <lcd_clear>
    1ec8:	0e 94 dd 03 	call	0x7ba	; 0x7ba <lcd_line1>
    1ecc:	85 ed       	ldi	r24, 0xD5	; 213
    1ece:	93 e0       	ldi	r25, 0x03	; 3
    1ed0:	0e 94 25 04 	call	0x84a	; 0x84a <lcd_writeProgString>
    1ed4:	0e 94 e1 03 	call	0x7c2	; 0x7c2 <lcd_line2>
    1ed8:	8a ec       	ldi	r24, 0xCA	; 202
    1eda:	93 e0       	ldi	r25, 0x03	; 3
    1edc:	0e 94 25 04 	call	0x84a	; 0x84a <lcd_writeProgString>
    1ee0:	80 ed       	ldi	r24, 0xD0	; 208
    1ee2:	97 e0       	ldi	r25, 0x07	; 7
    1ee4:	63 d8       	rcall	.-3898   	; 0xfac <delayMs>
    1ee6:	10 e0       	ldi	r17, 0x00	; 0
    1ee8:	09 c0       	rjmp	.+18     	; 0x1efc <prog1+0x74>
    1eea:	e1 e0       	ldi	r30, 0x01	; 1
    1eec:	f0 e0       	ldi	r31, 0x00	; 0
    1eee:	ec 0f       	add	r30, r28
    1ef0:	fd 1f       	adc	r31, r29
    1ef2:	e1 0f       	add	r30, r17
    1ef4:	f1 1d       	adc	r31, r1
    1ef6:	80 81       	ld	r24, Z
    1ef8:	22 de       	rcall	.-956    	; 0x1b3e <performStrategyTest>
    1efa:	1f 5f       	subi	r17, 0xFF	; 255
    1efc:	12 30       	cpi	r17, 0x02	; 2
    1efe:	a8 f3       	brcs	.-22     	; 0x1eea <prog1+0x62>
    1f00:	0e 94 99 03 	call	0x732	; 0x732 <lcd_clear>
    1f04:	0e 94 dd 03 	call	0x7ba	; 0x7ba <lcd_line1>
    1f08:	81 ec       	ldi	r24, 0xC1	; 193
    1f0a:	93 e0       	ldi	r25, 0x03	; 3
    1f0c:	0e 94 25 04 	call	0x84a	; 0x84a <lcd_writeProgString>
    1f10:	0e 94 e1 03 	call	0x7c2	; 0x7c2 <lcd_line2>
    1f14:	8c eb       	ldi	r24, 0xBC	; 188
    1f16:	93 e0       	ldi	r25, 0x03	; 3
    1f18:	0e 94 25 04 	call	0x84a	; 0x84a <lcd_writeProgString>
    1f1c:	80 ed       	ldi	r24, 0xD0	; 208
    1f1e:	97 e0       	ldi	r25, 0x07	; 7
    1f20:	45 d8       	rcall	.-3958   	; 0xfac <delayMs>
    1f22:	10 e0       	ldi	r17, 0x00	; 0
    1f24:	09 c0       	rjmp	.+18     	; 0x1f38 <prog1+0xb0>
    1f26:	e1 e0       	ldi	r30, 0x01	; 1
    1f28:	f0 e0       	ldi	r31, 0x00	; 0
    1f2a:	ec 0f       	add	r30, r28
    1f2c:	fd 1f       	adc	r31, r29
    1f2e:	e1 0f       	add	r30, r17
    1f30:	f1 1d       	adc	r31, r1
    1f32:	80 81       	ld	r24, Z
    1f34:	19 df       	rcall	.-462    	; 0x1d68 <performScheduleIdleTest>
    1f36:	1f 5f       	subi	r17, 0xFF	; 255
    1f38:	12 30       	cpi	r17, 0x02	; 2
    1f3a:	a8 f3       	brcs	.-22     	; 0x1f26 <prog1+0x9e>
    1f3c:	62 e0       	ldi	r22, 0x02	; 2
    1f3e:	84 e0       	ldi	r24, 0x04	; 4
    1f40:	3c da       	rcall	.-2952   	; 0x13ba <os_exec>
    1f42:	62 e0       	ldi	r22, 0x02	; 2
    1f44:	85 e0       	ldi	r24, 0x05	; 5
    1f46:	39 da       	rcall	.-2958   	; 0x13ba <os_exec>
    1f48:	62 e0       	ldi	r22, 0x02	; 2
    1f4a:	86 e0       	ldi	r24, 0x06	; 6
    1f4c:	36 da       	rcall	.-2964   	; 0x13ba <os_exec>
    1f4e:	62 e0       	ldi	r22, 0x02	; 2
    1f50:	87 e0       	ldi	r24, 0x07	; 7
    1f52:	33 da       	rcall	.-2970   	; 0x13ba <os_exec>
    1f54:	0e 94 99 03 	call	0x732	; 0x732 <lcd_clear>
    1f58:	0e 94 dd 03 	call	0x7ba	; 0x7ba <lcd_line1>
    1f5c:	83 eb       	ldi	r24, 0xB3	; 179
    1f5e:	93 e0       	ldi	r25, 0x03	; 3
    1f60:	0e 94 25 04 	call	0x84a	; 0x84a <lcd_writeProgString>
    1f64:	0e 94 e1 03 	call	0x7c2	; 0x7c2 <lcd_line2>
    1f68:	88 ea       	ldi	r24, 0xA8	; 168
    1f6a:	93 e0       	ldi	r25, 0x03	; 3
    1f6c:	0e 94 25 04 	call	0x84a	; 0x84a <lcd_writeProgString>
    1f70:	80 ed       	ldi	r24, 0xD0	; 208
    1f72:	97 e0       	ldi	r25, 0x07	; 7
    1f74:	1b d8       	rcall	.-4042   	; 0xfac <delayMs>
    1f76:	10 e0       	ldi	r17, 0x00	; 0
    1f78:	0a c0       	rjmp	.+20     	; 0x1f8e <prog1+0x106>
    1f7a:	e1 e0       	ldi	r30, 0x01	; 1
    1f7c:	f0 e0       	ldi	r31, 0x00	; 0
    1f7e:	ec 0f       	add	r30, r28
    1f80:	fd 1f       	adc	r31, r29
    1f82:	e1 0f       	add	r30, r17
    1f84:	f1 1d       	adc	r31, r1
    1f86:	6e ef       	ldi	r22, 0xFE	; 254
    1f88:	80 81       	ld	r24, Z
    1f8a:	56 de       	rcall	.-852    	; 0x1c38 <performSchedulabilityTest>
    1f8c:	1f 5f       	subi	r17, 0xFF	; 255
    1f8e:	12 30       	cpi	r17, 0x02	; 2
    1f90:	a0 f3       	brcs	.-24     	; 0x1f7a <prog1+0xf2>
    1f92:	0e 94 99 03 	call	0x732	; 0x732 <lcd_clear>
    1f96:	0e 94 dd 03 	call	0x7ba	; 0x7ba <lcd_line1>
    1f9a:	8f e9       	ldi	r24, 0x9F	; 159
    1f9c:	93 e0       	ldi	r25, 0x03	; 3
    1f9e:	0e 94 25 04 	call	0x84a	; 0x84a <lcd_writeProgString>
    1fa2:	0e 94 e1 03 	call	0x7c2	; 0x7c2 <lcd_line2>
    1fa6:	80 e9       	ldi	r24, 0x90	; 144
    1fa8:	93 e0       	ldi	r25, 0x03	; 3
    1faa:	0e 94 25 04 	call	0x84a	; 0x84a <lcd_writeProgString>
    1fae:	80 ed       	ldi	r24, 0xD0	; 208
    1fb0:	97 e0       	ldi	r25, 0x07	; 7
    1fb2:	0e 94 d6 07 	call	0xfac	; 0xfac <delayMs>
    1fb6:	83 e0       	ldi	r24, 0x03	; 3
    1fb8:	0f d9       	rcall	.-3554   	; 0x11d8 <os_getProcessSlot>
    1fba:	fc 01       	movw	r30, r24
    1fbc:	11 82       	std	Z+1, r1	; 0x01
    1fbe:	10 e0       	ldi	r17, 0x00	; 0
    1fc0:	0d c0       	rjmp	.+26     	; 0x1fdc <prog1+0x154>
    1fc2:	e1 e0       	ldi	r30, 0x01	; 1
    1fc4:	f0 e0       	ldi	r31, 0x00	; 0
    1fc6:	ec 0f       	add	r30, r28
    1fc8:	fd 1f       	adc	r31, r29
    1fca:	e1 0f       	add	r30, r17
    1fcc:	f1 1d       	adc	r31, r1
    1fce:	00 81       	ld	r16, Z
    1fd0:	80 2f       	mov	r24, r16
    1fd2:	b4 dc       	rcall	.-1688   	; 0x193c <os_resetSchedulingInformation>
    1fd4:	66 ef       	ldi	r22, 0xF6	; 246
    1fd6:	80 2f       	mov	r24, r16
    1fd8:	2f de       	rcall	.-930    	; 0x1c38 <performSchedulabilityTest>
    1fda:	1f 5f       	subi	r17, 0xFF	; 255
    1fdc:	12 30       	cpi	r17, 0x02	; 2
    1fde:	88 f3       	brcs	.-30     	; 0x1fc2 <prog1+0x13a>
    1fe0:	0e 94 99 03 	call	0x732	; 0x732 <lcd_clear>
    1fe4:	8f e7       	ldi	r24, 0x7F	; 127
    1fe6:	93 e0       	ldi	r25, 0x03	; 3
    1fe8:	0e 94 25 04 	call	0x84a	; 0x84a <lcd_writeProgString>
    1fec:	88 ee       	ldi	r24, 0xE8	; 232
    1fee:	93 e0       	ldi	r25, 0x03	; 3
    1ff0:	0e 94 d6 07 	call	0xfac	; 0xfac <delayMs>
    1ff4:	0e 94 99 03 	call	0x732	; 0x732 <lcd_clear>
    1ff8:	88 ee       	ldi	r24, 0xE8	; 232
    1ffa:	93 e0       	ldi	r25, 0x03	; 3
    1ffc:	0e 94 d6 07 	call	0xfac	; 0xfac <delayMs>
    2000:	ef cf       	rjmp	.-34     	; 0x1fe0 <prog1+0x158>

00002002 <registerProgram1>:
    2002:	81 e0       	ldi	r24, 0x01	; 1
    2004:	f4 d8       	rcall	.-3608   	; 0x11ee <os_getProgramSlot>
    2006:	24 e4       	ldi	r18, 0x44	; 68
    2008:	3f e0       	ldi	r19, 0x0F	; 15
    200a:	fc 01       	movw	r30, r24
    200c:	31 83       	std	Z+1, r19	; 0x01
    200e:	20 83       	st	Z, r18
    2010:	80 91 d3 03 	lds	r24, 0x03D3	; 0x8003d3 <os_autostart>
    2014:	90 91 d4 03 	lds	r25, 0x03D4	; 0x8003d4 <os_autostart+0x1>
    2018:	82 60       	ori	r24, 0x02	; 2
    201a:	90 93 d4 03 	sts	0x03D4, r25	; 0x8003d4 <os_autostart+0x1>
    201e:	80 93 d3 03 	sts	0x03D3, r24	; 0x8003d3 <os_autostart>
    2022:	08 95       	ret

00002024 <testProgram>:
    2024:	c8 2f       	mov	r28, r24
    2026:	80 91 7d 03 	lds	r24, 0x037D	; 0x80037d <i>
    202a:	80 32       	cpi	r24, 0x20	; 32
    202c:	50 f4       	brcc	.+20     	; 0x2042 <testProgram+0x1e>
    202e:	e0 91 7d 03 	lds	r30, 0x037D	; 0x80037d <i>
    2032:	81 e0       	ldi	r24, 0x01	; 1
    2034:	8e 0f       	add	r24, r30
    2036:	80 93 7d 03 	sts	0x037D, r24	; 0x80037d <i>
    203a:	f0 e0       	ldi	r31, 0x00	; 0
    203c:	ea 50       	subi	r30, 0x0A	; 10
    203e:	fc 4f       	sbci	r31, 0xFC	; 252
    2040:	c0 83       	st	Z, r28
    2042:	e4 da       	rcall	.-2616   	; 0x160c <__vector_13>
    2044:	f0 cf       	rjmp	.-32     	; 0x2026 <testProgram+0x2>

00002046 <prog2>:
    2046:	82 e0       	ldi	r24, 0x02	; 2
    2048:	ed df       	rcall	.-38     	; 0x2024 <testProgram>

0000204a <prog3>:
    204a:	83 e0       	ldi	r24, 0x03	; 3
    204c:	eb df       	rcall	.-42     	; 0x2024 <testProgram>

0000204e <prog4>:
    204e:	84 e0       	ldi	r24, 0x04	; 4
    2050:	e9 df       	rcall	.-46     	; 0x2024 <testProgram>

00002052 <prog5>:
    2052:	85 e0       	ldi	r24, 0x05	; 5
    2054:	e7 df       	rcall	.-50     	; 0x2024 <testProgram>

00002056 <prog6>:
    2056:	86 e0       	ldi	r24, 0x06	; 6
    2058:	e5 df       	rcall	.-54     	; 0x2024 <testProgram>

0000205a <prog7>:
    205a:	87 e0       	ldi	r24, 0x07	; 7
    205c:	e3 df       	rcall	.-58     	; 0x2024 <testProgram>

0000205e <registerProgram2>:
    205e:	82 e0       	ldi	r24, 0x02	; 2
    2060:	c6 d8       	rcall	.-3700   	; 0x11ee <os_getProgramSlot>
    2062:	23 e2       	ldi	r18, 0x23	; 35
    2064:	30 e1       	ldi	r19, 0x10	; 16
    2066:	fc 01       	movw	r30, r24
    2068:	31 83       	std	Z+1, r19	; 0x01
    206a:	20 83       	st	Z, r18
    206c:	08 95       	ret

0000206e <registerProgram3>:
    206e:	83 e0       	ldi	r24, 0x03	; 3
    2070:	be d8       	rcall	.-3716   	; 0x11ee <os_getProgramSlot>
    2072:	25 e2       	ldi	r18, 0x25	; 37
    2074:	30 e1       	ldi	r19, 0x10	; 16
    2076:	fc 01       	movw	r30, r24
    2078:	31 83       	std	Z+1, r19	; 0x01
    207a:	20 83       	st	Z, r18
    207c:	08 95       	ret

0000207e <registerProgram4>:
    207e:	84 e0       	ldi	r24, 0x04	; 4
    2080:	b6 d8       	rcall	.-3732   	; 0x11ee <os_getProgramSlot>
    2082:	27 e2       	ldi	r18, 0x27	; 39
    2084:	30 e1       	ldi	r19, 0x10	; 16
    2086:	fc 01       	movw	r30, r24
    2088:	31 83       	std	Z+1, r19	; 0x01
    208a:	20 83       	st	Z, r18
    208c:	08 95       	ret

0000208e <registerProgram5>:
    208e:	85 e0       	ldi	r24, 0x05	; 5
    2090:	ae d8       	rcall	.-3748   	; 0x11ee <os_getProgramSlot>
    2092:	29 e2       	ldi	r18, 0x29	; 41
    2094:	30 e1       	ldi	r19, 0x10	; 16
    2096:	fc 01       	movw	r30, r24
    2098:	31 83       	std	Z+1, r19	; 0x01
    209a:	20 83       	st	Z, r18
    209c:	08 95       	ret

0000209e <registerProgram6>:
    209e:	86 e0       	ldi	r24, 0x06	; 6
    20a0:	a6 d8       	rcall	.-3764   	; 0x11ee <os_getProgramSlot>
    20a2:	2b e2       	ldi	r18, 0x2B	; 43
    20a4:	30 e1       	ldi	r19, 0x10	; 16
    20a6:	fc 01       	movw	r30, r24
    20a8:	31 83       	std	Z+1, r19	; 0x01
    20aa:	20 83       	st	Z, r18
    20ac:	08 95       	ret

000020ae <registerProgram7>:
    20ae:	87 e0       	ldi	r24, 0x07	; 7
    20b0:	9e d8       	rcall	.-3780   	; 0x11ee <os_getProgramSlot>
    20b2:	2d e2       	ldi	r18, 0x2D	; 45
    20b4:	30 e1       	ldi	r19, 0x10	; 16
    20b6:	fc 01       	movw	r30, r24
    20b8:	31 83       	std	Z+1, r19	; 0x01
    20ba:	20 83       	st	Z, r18
    20bc:	08 95       	ret

000020be <__udivmodsi4>:
    20be:	a1 e2       	ldi	r26, 0x21	; 33
    20c0:	1a 2e       	mov	r1, r26
    20c2:	aa 1b       	sub	r26, r26
    20c4:	bb 1b       	sub	r27, r27
    20c6:	fd 01       	movw	r30, r26
    20c8:	0d c0       	rjmp	.+26     	; 0x20e4 <__udivmodsi4_ep>

000020ca <__udivmodsi4_loop>:
    20ca:	aa 1f       	adc	r26, r26
    20cc:	bb 1f       	adc	r27, r27
    20ce:	ee 1f       	adc	r30, r30
    20d0:	ff 1f       	adc	r31, r31
    20d2:	a2 17       	cp	r26, r18
    20d4:	b3 07       	cpc	r27, r19
    20d6:	e4 07       	cpc	r30, r20
    20d8:	f5 07       	cpc	r31, r21
    20da:	20 f0       	brcs	.+8      	; 0x20e4 <__udivmodsi4_ep>
    20dc:	a2 1b       	sub	r26, r18
    20de:	b3 0b       	sbc	r27, r19
    20e0:	e4 0b       	sbc	r30, r20
    20e2:	f5 0b       	sbc	r31, r21

000020e4 <__udivmodsi4_ep>:
    20e4:	66 1f       	adc	r22, r22
    20e6:	77 1f       	adc	r23, r23
    20e8:	88 1f       	adc	r24, r24
    20ea:	99 1f       	adc	r25, r25
    20ec:	1a 94       	dec	r1
    20ee:	69 f7       	brne	.-38     	; 0x20ca <__udivmodsi4_loop>
    20f0:	60 95       	com	r22
    20f2:	70 95       	com	r23
    20f4:	80 95       	com	r24
    20f6:	90 95       	com	r25
    20f8:	9b 01       	movw	r18, r22
    20fa:	ac 01       	movw	r20, r24
    20fc:	bd 01       	movw	r22, r26
    20fe:	cf 01       	movw	r24, r30
    2100:	08 95       	ret

00002102 <__tablejump2__>:
    2102:	ee 0f       	add	r30, r30
    2104:	ff 1f       	adc	r31, r31
    2106:	88 1f       	adc	r24, r24
    2108:	8b bf       	out	0x3b, r24	; 59
    210a:	07 90       	elpm	r0, Z+
    210c:	f6 91       	elpm	r31, Z
    210e:	e0 2d       	mov	r30, r0
    2110:	19 94       	eijmp

00002112 <__umulhisi3>:
    2112:	a2 9f       	mul	r26, r18
    2114:	b0 01       	movw	r22, r0
    2116:	b3 9f       	mul	r27, r19
    2118:	c0 01       	movw	r24, r0
    211a:	a3 9f       	mul	r26, r19
    211c:	70 0d       	add	r23, r0
    211e:	81 1d       	adc	r24, r1
    2120:	11 24       	eor	r1, r1
    2122:	91 1d       	adc	r25, r1
    2124:	b2 9f       	mul	r27, r18
    2126:	70 0d       	add	r23, r0
    2128:	81 1d       	adc	r24, r1
    212a:	11 24       	eor	r1, r1
    212c:	91 1d       	adc	r25, r1
    212e:	08 95       	ret

00002130 <printf>:
    2130:	cf 93       	push	r28
    2132:	df 93       	push	r29
    2134:	cd b7       	in	r28, 0x3d	; 61
    2136:	de b7       	in	r29, 0x3e	; 62
    2138:	ae 01       	movw	r20, r28
    213a:	4a 5f       	subi	r20, 0xFA	; 250
    213c:	5f 4f       	sbci	r21, 0xFF	; 255
    213e:	fa 01       	movw	r30, r20
    2140:	61 91       	ld	r22, Z+
    2142:	71 91       	ld	r23, Z+
    2144:	af 01       	movw	r20, r30
    2146:	80 91 18 04 	lds	r24, 0x0418	; 0x800418 <__iob+0x2>
    214a:	90 91 19 04 	lds	r25, 0x0419	; 0x800419 <__iob+0x3>
    214e:	11 d0       	rcall	.+34     	; 0x2172 <vfprintf>
    2150:	df 91       	pop	r29
    2152:	cf 91       	pop	r28
    2154:	08 95       	ret

00002156 <vfprintf_P>:
    2156:	cf 93       	push	r28
    2158:	df 93       	push	r29
    215a:	ec 01       	movw	r28, r24
    215c:	8b 81       	ldd	r24, Y+3	; 0x03
    215e:	88 60       	ori	r24, 0x08	; 8
    2160:	8b 83       	std	Y+3, r24	; 0x03
    2162:	ce 01       	movw	r24, r28
    2164:	06 d0       	rcall	.+12     	; 0x2172 <vfprintf>
    2166:	2b 81       	ldd	r18, Y+3	; 0x03
    2168:	27 7f       	andi	r18, 0xF7	; 247
    216a:	2b 83       	std	Y+3, r18	; 0x03
    216c:	df 91       	pop	r29
    216e:	cf 91       	pop	r28
    2170:	08 95       	ret

00002172 <vfprintf>:
    2172:	2f 92       	push	r2
    2174:	3f 92       	push	r3
    2176:	4f 92       	push	r4
    2178:	5f 92       	push	r5
    217a:	6f 92       	push	r6
    217c:	7f 92       	push	r7
    217e:	8f 92       	push	r8
    2180:	9f 92       	push	r9
    2182:	af 92       	push	r10
    2184:	bf 92       	push	r11
    2186:	cf 92       	push	r12
    2188:	df 92       	push	r13
    218a:	ef 92       	push	r14
    218c:	ff 92       	push	r15
    218e:	0f 93       	push	r16
    2190:	1f 93       	push	r17
    2192:	cf 93       	push	r28
    2194:	df 93       	push	r29
    2196:	cd b7       	in	r28, 0x3d	; 61
    2198:	de b7       	in	r29, 0x3e	; 62
    219a:	2b 97       	sbiw	r28, 0x0b	; 11
    219c:	0f b6       	in	r0, 0x3f	; 63
    219e:	f8 94       	cli
    21a0:	de bf       	out	0x3e, r29	; 62
    21a2:	0f be       	out	0x3f, r0	; 63
    21a4:	cd bf       	out	0x3d, r28	; 61
    21a6:	6c 01       	movw	r12, r24
    21a8:	7b 01       	movw	r14, r22
    21aa:	8a 01       	movw	r16, r20
    21ac:	fc 01       	movw	r30, r24
    21ae:	17 82       	std	Z+7, r1	; 0x07
    21b0:	16 82       	std	Z+6, r1	; 0x06
    21b2:	83 81       	ldd	r24, Z+3	; 0x03
    21b4:	81 ff       	sbrs	r24, 1
    21b6:	bf c1       	rjmp	.+894    	; 0x2536 <__stack+0x337>
    21b8:	ce 01       	movw	r24, r28
    21ba:	01 96       	adiw	r24, 0x01	; 1
    21bc:	3c 01       	movw	r6, r24
    21be:	f6 01       	movw	r30, r12
    21c0:	93 81       	ldd	r25, Z+3	; 0x03
    21c2:	f7 01       	movw	r30, r14
    21c4:	93 fd       	sbrc	r25, 3
    21c6:	85 91       	lpm	r24, Z+
    21c8:	93 ff       	sbrs	r25, 3
    21ca:	81 91       	ld	r24, Z+
    21cc:	7f 01       	movw	r14, r30
    21ce:	88 23       	and	r24, r24
    21d0:	09 f4       	brne	.+2      	; 0x21d4 <vfprintf+0x62>
    21d2:	ad c1       	rjmp	.+858    	; 0x252e <__stack+0x32f>
    21d4:	85 32       	cpi	r24, 0x25	; 37
    21d6:	39 f4       	brne	.+14     	; 0x21e6 <vfprintf+0x74>
    21d8:	93 fd       	sbrc	r25, 3
    21da:	85 91       	lpm	r24, Z+
    21dc:	93 ff       	sbrs	r25, 3
    21de:	81 91       	ld	r24, Z+
    21e0:	7f 01       	movw	r14, r30
    21e2:	85 32       	cpi	r24, 0x25	; 37
    21e4:	21 f4       	brne	.+8      	; 0x21ee <vfprintf+0x7c>
    21e6:	b6 01       	movw	r22, r12
    21e8:	90 e0       	ldi	r25, 0x00	; 0
    21ea:	d6 d1       	rcall	.+940    	; 0x2598 <fputc>
    21ec:	e8 cf       	rjmp	.-48     	; 0x21be <vfprintf+0x4c>
    21ee:	91 2c       	mov	r9, r1
    21f0:	21 2c       	mov	r2, r1
    21f2:	31 2c       	mov	r3, r1
    21f4:	ff e1       	ldi	r31, 0x1F	; 31
    21f6:	f3 15       	cp	r31, r3
    21f8:	d8 f0       	brcs	.+54     	; 0x2230 <__stack+0x31>
    21fa:	8b 32       	cpi	r24, 0x2B	; 43
    21fc:	79 f0       	breq	.+30     	; 0x221c <__stack+0x1d>
    21fe:	38 f4       	brcc	.+14     	; 0x220e <__stack+0xf>
    2200:	80 32       	cpi	r24, 0x20	; 32
    2202:	79 f0       	breq	.+30     	; 0x2222 <__stack+0x23>
    2204:	83 32       	cpi	r24, 0x23	; 35
    2206:	a1 f4       	brne	.+40     	; 0x2230 <__stack+0x31>
    2208:	23 2d       	mov	r18, r3
    220a:	20 61       	ori	r18, 0x10	; 16
    220c:	1d c0       	rjmp	.+58     	; 0x2248 <__stack+0x49>
    220e:	8d 32       	cpi	r24, 0x2D	; 45
    2210:	61 f0       	breq	.+24     	; 0x222a <__stack+0x2b>
    2212:	80 33       	cpi	r24, 0x30	; 48
    2214:	69 f4       	brne	.+26     	; 0x2230 <__stack+0x31>
    2216:	23 2d       	mov	r18, r3
    2218:	21 60       	ori	r18, 0x01	; 1
    221a:	16 c0       	rjmp	.+44     	; 0x2248 <__stack+0x49>
    221c:	83 2d       	mov	r24, r3
    221e:	82 60       	ori	r24, 0x02	; 2
    2220:	38 2e       	mov	r3, r24
    2222:	e3 2d       	mov	r30, r3
    2224:	e4 60       	ori	r30, 0x04	; 4
    2226:	3e 2e       	mov	r3, r30
    2228:	2a c0       	rjmp	.+84     	; 0x227e <__stack+0x7f>
    222a:	f3 2d       	mov	r31, r3
    222c:	f8 60       	ori	r31, 0x08	; 8
    222e:	1d c0       	rjmp	.+58     	; 0x226a <__stack+0x6b>
    2230:	37 fc       	sbrc	r3, 7
    2232:	2d c0       	rjmp	.+90     	; 0x228e <__stack+0x8f>
    2234:	20 ed       	ldi	r18, 0xD0	; 208
    2236:	28 0f       	add	r18, r24
    2238:	2a 30       	cpi	r18, 0x0A	; 10
    223a:	40 f0       	brcs	.+16     	; 0x224c <__stack+0x4d>
    223c:	8e 32       	cpi	r24, 0x2E	; 46
    223e:	b9 f4       	brne	.+46     	; 0x226e <__stack+0x6f>
    2240:	36 fc       	sbrc	r3, 6
    2242:	75 c1       	rjmp	.+746    	; 0x252e <__stack+0x32f>
    2244:	23 2d       	mov	r18, r3
    2246:	20 64       	ori	r18, 0x40	; 64
    2248:	32 2e       	mov	r3, r18
    224a:	19 c0       	rjmp	.+50     	; 0x227e <__stack+0x7f>
    224c:	36 fe       	sbrs	r3, 6
    224e:	06 c0       	rjmp	.+12     	; 0x225c <__stack+0x5d>
    2250:	8a e0       	ldi	r24, 0x0A	; 10
    2252:	98 9e       	mul	r9, r24
    2254:	20 0d       	add	r18, r0
    2256:	11 24       	eor	r1, r1
    2258:	92 2e       	mov	r9, r18
    225a:	11 c0       	rjmp	.+34     	; 0x227e <__stack+0x7f>
    225c:	ea e0       	ldi	r30, 0x0A	; 10
    225e:	2e 9e       	mul	r2, r30
    2260:	20 0d       	add	r18, r0
    2262:	11 24       	eor	r1, r1
    2264:	22 2e       	mov	r2, r18
    2266:	f3 2d       	mov	r31, r3
    2268:	f0 62       	ori	r31, 0x20	; 32
    226a:	3f 2e       	mov	r3, r31
    226c:	08 c0       	rjmp	.+16     	; 0x227e <__stack+0x7f>
    226e:	8c 36       	cpi	r24, 0x6C	; 108
    2270:	21 f4       	brne	.+8      	; 0x227a <__stack+0x7b>
    2272:	83 2d       	mov	r24, r3
    2274:	80 68       	ori	r24, 0x80	; 128
    2276:	38 2e       	mov	r3, r24
    2278:	02 c0       	rjmp	.+4      	; 0x227e <__stack+0x7f>
    227a:	88 36       	cpi	r24, 0x68	; 104
    227c:	41 f4       	brne	.+16     	; 0x228e <__stack+0x8f>
    227e:	f7 01       	movw	r30, r14
    2280:	93 fd       	sbrc	r25, 3
    2282:	85 91       	lpm	r24, Z+
    2284:	93 ff       	sbrs	r25, 3
    2286:	81 91       	ld	r24, Z+
    2288:	7f 01       	movw	r14, r30
    228a:	81 11       	cpse	r24, r1
    228c:	b3 cf       	rjmp	.-154    	; 0x21f4 <vfprintf+0x82>
    228e:	98 2f       	mov	r25, r24
    2290:	9f 7d       	andi	r25, 0xDF	; 223
    2292:	95 54       	subi	r25, 0x45	; 69
    2294:	93 30       	cpi	r25, 0x03	; 3
    2296:	28 f4       	brcc	.+10     	; 0x22a2 <__stack+0xa3>
    2298:	0c 5f       	subi	r16, 0xFC	; 252
    229a:	1f 4f       	sbci	r17, 0xFF	; 255
    229c:	9f e3       	ldi	r25, 0x3F	; 63
    229e:	99 83       	std	Y+1, r25	; 0x01
    22a0:	0d c0       	rjmp	.+26     	; 0x22bc <__stack+0xbd>
    22a2:	83 36       	cpi	r24, 0x63	; 99
    22a4:	31 f0       	breq	.+12     	; 0x22b2 <__stack+0xb3>
    22a6:	83 37       	cpi	r24, 0x73	; 115
    22a8:	71 f0       	breq	.+28     	; 0x22c6 <__stack+0xc7>
    22aa:	83 35       	cpi	r24, 0x53	; 83
    22ac:	09 f0       	breq	.+2      	; 0x22b0 <__stack+0xb1>
    22ae:	55 c0       	rjmp	.+170    	; 0x235a <__stack+0x15b>
    22b0:	20 c0       	rjmp	.+64     	; 0x22f2 <__stack+0xf3>
    22b2:	f8 01       	movw	r30, r16
    22b4:	80 81       	ld	r24, Z
    22b6:	89 83       	std	Y+1, r24	; 0x01
    22b8:	0e 5f       	subi	r16, 0xFE	; 254
    22ba:	1f 4f       	sbci	r17, 0xFF	; 255
    22bc:	88 24       	eor	r8, r8
    22be:	83 94       	inc	r8
    22c0:	91 2c       	mov	r9, r1
    22c2:	53 01       	movw	r10, r6
    22c4:	12 c0       	rjmp	.+36     	; 0x22ea <__stack+0xeb>
    22c6:	28 01       	movw	r4, r16
    22c8:	f2 e0       	ldi	r31, 0x02	; 2
    22ca:	4f 0e       	add	r4, r31
    22cc:	51 1c       	adc	r5, r1
    22ce:	f8 01       	movw	r30, r16
    22d0:	a0 80       	ld	r10, Z
    22d2:	b1 80       	ldd	r11, Z+1	; 0x01
    22d4:	36 fe       	sbrs	r3, 6
    22d6:	03 c0       	rjmp	.+6      	; 0x22de <__stack+0xdf>
    22d8:	69 2d       	mov	r22, r9
    22da:	70 e0       	ldi	r23, 0x00	; 0
    22dc:	02 c0       	rjmp	.+4      	; 0x22e2 <__stack+0xe3>
    22de:	6f ef       	ldi	r22, 0xFF	; 255
    22e0:	7f ef       	ldi	r23, 0xFF	; 255
    22e2:	c5 01       	movw	r24, r10
    22e4:	4e d1       	rcall	.+668    	; 0x2582 <strnlen>
    22e6:	4c 01       	movw	r8, r24
    22e8:	82 01       	movw	r16, r4
    22ea:	f3 2d       	mov	r31, r3
    22ec:	ff 77       	andi	r31, 0x7F	; 127
    22ee:	3f 2e       	mov	r3, r31
    22f0:	15 c0       	rjmp	.+42     	; 0x231c <__stack+0x11d>
    22f2:	28 01       	movw	r4, r16
    22f4:	22 e0       	ldi	r18, 0x02	; 2
    22f6:	42 0e       	add	r4, r18
    22f8:	51 1c       	adc	r5, r1
    22fa:	f8 01       	movw	r30, r16
    22fc:	a0 80       	ld	r10, Z
    22fe:	b1 80       	ldd	r11, Z+1	; 0x01
    2300:	36 fe       	sbrs	r3, 6
    2302:	03 c0       	rjmp	.+6      	; 0x230a <__stack+0x10b>
    2304:	69 2d       	mov	r22, r9
    2306:	70 e0       	ldi	r23, 0x00	; 0
    2308:	02 c0       	rjmp	.+4      	; 0x230e <__stack+0x10f>
    230a:	6f ef       	ldi	r22, 0xFF	; 255
    230c:	7f ef       	ldi	r23, 0xFF	; 255
    230e:	c5 01       	movw	r24, r10
    2310:	2d d1       	rcall	.+602    	; 0x256c <strnlen_P>
    2312:	4c 01       	movw	r8, r24
    2314:	f3 2d       	mov	r31, r3
    2316:	f0 68       	ori	r31, 0x80	; 128
    2318:	3f 2e       	mov	r3, r31
    231a:	82 01       	movw	r16, r4
    231c:	33 fc       	sbrc	r3, 3
    231e:	19 c0       	rjmp	.+50     	; 0x2352 <__stack+0x153>
    2320:	82 2d       	mov	r24, r2
    2322:	90 e0       	ldi	r25, 0x00	; 0
    2324:	88 16       	cp	r8, r24
    2326:	99 06       	cpc	r9, r25
    2328:	a0 f4       	brcc	.+40     	; 0x2352 <__stack+0x153>
    232a:	b6 01       	movw	r22, r12
    232c:	80 e2       	ldi	r24, 0x20	; 32
    232e:	90 e0       	ldi	r25, 0x00	; 0
    2330:	33 d1       	rcall	.+614    	; 0x2598 <fputc>
    2332:	2a 94       	dec	r2
    2334:	f5 cf       	rjmp	.-22     	; 0x2320 <__stack+0x121>
    2336:	f5 01       	movw	r30, r10
    2338:	37 fc       	sbrc	r3, 7
    233a:	85 91       	lpm	r24, Z+
    233c:	37 fe       	sbrs	r3, 7
    233e:	81 91       	ld	r24, Z+
    2340:	5f 01       	movw	r10, r30
    2342:	b6 01       	movw	r22, r12
    2344:	90 e0       	ldi	r25, 0x00	; 0
    2346:	28 d1       	rcall	.+592    	; 0x2598 <fputc>
    2348:	21 10       	cpse	r2, r1
    234a:	2a 94       	dec	r2
    234c:	21 e0       	ldi	r18, 0x01	; 1
    234e:	82 1a       	sub	r8, r18
    2350:	91 08       	sbc	r9, r1
    2352:	81 14       	cp	r8, r1
    2354:	91 04       	cpc	r9, r1
    2356:	79 f7       	brne	.-34     	; 0x2336 <__stack+0x137>
    2358:	e1 c0       	rjmp	.+450    	; 0x251c <__stack+0x31d>
    235a:	84 36       	cpi	r24, 0x64	; 100
    235c:	11 f0       	breq	.+4      	; 0x2362 <__stack+0x163>
    235e:	89 36       	cpi	r24, 0x69	; 105
    2360:	39 f5       	brne	.+78     	; 0x23b0 <__stack+0x1b1>
    2362:	f8 01       	movw	r30, r16
    2364:	37 fe       	sbrs	r3, 7
    2366:	07 c0       	rjmp	.+14     	; 0x2376 <__stack+0x177>
    2368:	60 81       	ld	r22, Z
    236a:	71 81       	ldd	r23, Z+1	; 0x01
    236c:	82 81       	ldd	r24, Z+2	; 0x02
    236e:	93 81       	ldd	r25, Z+3	; 0x03
    2370:	0c 5f       	subi	r16, 0xFC	; 252
    2372:	1f 4f       	sbci	r17, 0xFF	; 255
    2374:	08 c0       	rjmp	.+16     	; 0x2386 <__stack+0x187>
    2376:	60 81       	ld	r22, Z
    2378:	71 81       	ldd	r23, Z+1	; 0x01
    237a:	07 2e       	mov	r0, r23
    237c:	00 0c       	add	r0, r0
    237e:	88 0b       	sbc	r24, r24
    2380:	99 0b       	sbc	r25, r25
    2382:	0e 5f       	subi	r16, 0xFE	; 254
    2384:	1f 4f       	sbci	r17, 0xFF	; 255
    2386:	f3 2d       	mov	r31, r3
    2388:	ff 76       	andi	r31, 0x6F	; 111
    238a:	3f 2e       	mov	r3, r31
    238c:	97 ff       	sbrs	r25, 7
    238e:	09 c0       	rjmp	.+18     	; 0x23a2 <__stack+0x1a3>
    2390:	90 95       	com	r25
    2392:	80 95       	com	r24
    2394:	70 95       	com	r23
    2396:	61 95       	neg	r22
    2398:	7f 4f       	sbci	r23, 0xFF	; 255
    239a:	8f 4f       	sbci	r24, 0xFF	; 255
    239c:	9f 4f       	sbci	r25, 0xFF	; 255
    239e:	f0 68       	ori	r31, 0x80	; 128
    23a0:	3f 2e       	mov	r3, r31
    23a2:	2a e0       	ldi	r18, 0x0A	; 10
    23a4:	30 e0       	ldi	r19, 0x00	; 0
    23a6:	a3 01       	movw	r20, r6
    23a8:	33 d1       	rcall	.+614    	; 0x2610 <__ultoa_invert>
    23aa:	88 2e       	mov	r8, r24
    23ac:	86 18       	sub	r8, r6
    23ae:	44 c0       	rjmp	.+136    	; 0x2438 <__stack+0x239>
    23b0:	85 37       	cpi	r24, 0x75	; 117
    23b2:	31 f4       	brne	.+12     	; 0x23c0 <__stack+0x1c1>
    23b4:	23 2d       	mov	r18, r3
    23b6:	2f 7e       	andi	r18, 0xEF	; 239
    23b8:	b2 2e       	mov	r11, r18
    23ba:	2a e0       	ldi	r18, 0x0A	; 10
    23bc:	30 e0       	ldi	r19, 0x00	; 0
    23be:	25 c0       	rjmp	.+74     	; 0x240a <__stack+0x20b>
    23c0:	93 2d       	mov	r25, r3
    23c2:	99 7f       	andi	r25, 0xF9	; 249
    23c4:	b9 2e       	mov	r11, r25
    23c6:	8f 36       	cpi	r24, 0x6F	; 111
    23c8:	c1 f0       	breq	.+48     	; 0x23fa <__stack+0x1fb>
    23ca:	18 f4       	brcc	.+6      	; 0x23d2 <__stack+0x1d3>
    23cc:	88 35       	cpi	r24, 0x58	; 88
    23ce:	79 f0       	breq	.+30     	; 0x23ee <__stack+0x1ef>
    23d0:	ae c0       	rjmp	.+348    	; 0x252e <__stack+0x32f>
    23d2:	80 37       	cpi	r24, 0x70	; 112
    23d4:	19 f0       	breq	.+6      	; 0x23dc <__stack+0x1dd>
    23d6:	88 37       	cpi	r24, 0x78	; 120
    23d8:	21 f0       	breq	.+8      	; 0x23e2 <__stack+0x1e3>
    23da:	a9 c0       	rjmp	.+338    	; 0x252e <__stack+0x32f>
    23dc:	e9 2f       	mov	r30, r25
    23de:	e0 61       	ori	r30, 0x10	; 16
    23e0:	be 2e       	mov	r11, r30
    23e2:	b4 fe       	sbrs	r11, 4
    23e4:	0d c0       	rjmp	.+26     	; 0x2400 <__stack+0x201>
    23e6:	fb 2d       	mov	r31, r11
    23e8:	f4 60       	ori	r31, 0x04	; 4
    23ea:	bf 2e       	mov	r11, r31
    23ec:	09 c0       	rjmp	.+18     	; 0x2400 <__stack+0x201>
    23ee:	34 fe       	sbrs	r3, 4
    23f0:	0a c0       	rjmp	.+20     	; 0x2406 <__stack+0x207>
    23f2:	29 2f       	mov	r18, r25
    23f4:	26 60       	ori	r18, 0x06	; 6
    23f6:	b2 2e       	mov	r11, r18
    23f8:	06 c0       	rjmp	.+12     	; 0x2406 <__stack+0x207>
    23fa:	28 e0       	ldi	r18, 0x08	; 8
    23fc:	30 e0       	ldi	r19, 0x00	; 0
    23fe:	05 c0       	rjmp	.+10     	; 0x240a <__stack+0x20b>
    2400:	20 e1       	ldi	r18, 0x10	; 16
    2402:	30 e0       	ldi	r19, 0x00	; 0
    2404:	02 c0       	rjmp	.+4      	; 0x240a <__stack+0x20b>
    2406:	20 e1       	ldi	r18, 0x10	; 16
    2408:	32 e0       	ldi	r19, 0x02	; 2
    240a:	f8 01       	movw	r30, r16
    240c:	b7 fe       	sbrs	r11, 7
    240e:	07 c0       	rjmp	.+14     	; 0x241e <__stack+0x21f>
    2410:	60 81       	ld	r22, Z
    2412:	71 81       	ldd	r23, Z+1	; 0x01
    2414:	82 81       	ldd	r24, Z+2	; 0x02
    2416:	93 81       	ldd	r25, Z+3	; 0x03
    2418:	0c 5f       	subi	r16, 0xFC	; 252
    241a:	1f 4f       	sbci	r17, 0xFF	; 255
    241c:	06 c0       	rjmp	.+12     	; 0x242a <__stack+0x22b>
    241e:	60 81       	ld	r22, Z
    2420:	71 81       	ldd	r23, Z+1	; 0x01
    2422:	80 e0       	ldi	r24, 0x00	; 0
    2424:	90 e0       	ldi	r25, 0x00	; 0
    2426:	0e 5f       	subi	r16, 0xFE	; 254
    2428:	1f 4f       	sbci	r17, 0xFF	; 255
    242a:	a3 01       	movw	r20, r6
    242c:	f1 d0       	rcall	.+482    	; 0x2610 <__ultoa_invert>
    242e:	88 2e       	mov	r8, r24
    2430:	86 18       	sub	r8, r6
    2432:	fb 2d       	mov	r31, r11
    2434:	ff 77       	andi	r31, 0x7F	; 127
    2436:	3f 2e       	mov	r3, r31
    2438:	36 fe       	sbrs	r3, 6
    243a:	0d c0       	rjmp	.+26     	; 0x2456 <__stack+0x257>
    243c:	23 2d       	mov	r18, r3
    243e:	2e 7f       	andi	r18, 0xFE	; 254
    2440:	a2 2e       	mov	r10, r18
    2442:	89 14       	cp	r8, r9
    2444:	58 f4       	brcc	.+22     	; 0x245c <__stack+0x25d>
    2446:	34 fe       	sbrs	r3, 4
    2448:	0b c0       	rjmp	.+22     	; 0x2460 <__stack+0x261>
    244a:	32 fc       	sbrc	r3, 2
    244c:	09 c0       	rjmp	.+18     	; 0x2460 <__stack+0x261>
    244e:	83 2d       	mov	r24, r3
    2450:	8e 7e       	andi	r24, 0xEE	; 238
    2452:	a8 2e       	mov	r10, r24
    2454:	05 c0       	rjmp	.+10     	; 0x2460 <__stack+0x261>
    2456:	b8 2c       	mov	r11, r8
    2458:	a3 2c       	mov	r10, r3
    245a:	03 c0       	rjmp	.+6      	; 0x2462 <__stack+0x263>
    245c:	b8 2c       	mov	r11, r8
    245e:	01 c0       	rjmp	.+2      	; 0x2462 <__stack+0x263>
    2460:	b9 2c       	mov	r11, r9
    2462:	a4 fe       	sbrs	r10, 4
    2464:	0f c0       	rjmp	.+30     	; 0x2484 <__stack+0x285>
    2466:	fe 01       	movw	r30, r28
    2468:	e8 0d       	add	r30, r8
    246a:	f1 1d       	adc	r31, r1
    246c:	80 81       	ld	r24, Z
    246e:	80 33       	cpi	r24, 0x30	; 48
    2470:	21 f4       	brne	.+8      	; 0x247a <__stack+0x27b>
    2472:	9a 2d       	mov	r25, r10
    2474:	99 7e       	andi	r25, 0xE9	; 233
    2476:	a9 2e       	mov	r10, r25
    2478:	09 c0       	rjmp	.+18     	; 0x248c <__stack+0x28d>
    247a:	a2 fe       	sbrs	r10, 2
    247c:	06 c0       	rjmp	.+12     	; 0x248a <__stack+0x28b>
    247e:	b3 94       	inc	r11
    2480:	b3 94       	inc	r11
    2482:	04 c0       	rjmp	.+8      	; 0x248c <__stack+0x28d>
    2484:	8a 2d       	mov	r24, r10
    2486:	86 78       	andi	r24, 0x86	; 134
    2488:	09 f0       	breq	.+2      	; 0x248c <__stack+0x28d>
    248a:	b3 94       	inc	r11
    248c:	a3 fc       	sbrc	r10, 3
    248e:	10 c0       	rjmp	.+32     	; 0x24b0 <__stack+0x2b1>
    2490:	a0 fe       	sbrs	r10, 0
    2492:	06 c0       	rjmp	.+12     	; 0x24a0 <__stack+0x2a1>
    2494:	b2 14       	cp	r11, r2
    2496:	80 f4       	brcc	.+32     	; 0x24b8 <__stack+0x2b9>
    2498:	28 0c       	add	r2, r8
    249a:	92 2c       	mov	r9, r2
    249c:	9b 18       	sub	r9, r11
    249e:	0d c0       	rjmp	.+26     	; 0x24ba <__stack+0x2bb>
    24a0:	b2 14       	cp	r11, r2
    24a2:	58 f4       	brcc	.+22     	; 0x24ba <__stack+0x2bb>
    24a4:	b6 01       	movw	r22, r12
    24a6:	80 e2       	ldi	r24, 0x20	; 32
    24a8:	90 e0       	ldi	r25, 0x00	; 0
    24aa:	76 d0       	rcall	.+236    	; 0x2598 <fputc>
    24ac:	b3 94       	inc	r11
    24ae:	f8 cf       	rjmp	.-16     	; 0x24a0 <__stack+0x2a1>
    24b0:	b2 14       	cp	r11, r2
    24b2:	18 f4       	brcc	.+6      	; 0x24ba <__stack+0x2bb>
    24b4:	2b 18       	sub	r2, r11
    24b6:	02 c0       	rjmp	.+4      	; 0x24bc <__stack+0x2bd>
    24b8:	98 2c       	mov	r9, r8
    24ba:	21 2c       	mov	r2, r1
    24bc:	a4 fe       	sbrs	r10, 4
    24be:	0f c0       	rjmp	.+30     	; 0x24de <__stack+0x2df>
    24c0:	b6 01       	movw	r22, r12
    24c2:	80 e3       	ldi	r24, 0x30	; 48
    24c4:	90 e0       	ldi	r25, 0x00	; 0
    24c6:	68 d0       	rcall	.+208    	; 0x2598 <fputc>
    24c8:	a2 fe       	sbrs	r10, 2
    24ca:	16 c0       	rjmp	.+44     	; 0x24f8 <__stack+0x2f9>
    24cc:	a1 fc       	sbrc	r10, 1
    24ce:	03 c0       	rjmp	.+6      	; 0x24d6 <__stack+0x2d7>
    24d0:	88 e7       	ldi	r24, 0x78	; 120
    24d2:	90 e0       	ldi	r25, 0x00	; 0
    24d4:	02 c0       	rjmp	.+4      	; 0x24da <__stack+0x2db>
    24d6:	88 e5       	ldi	r24, 0x58	; 88
    24d8:	90 e0       	ldi	r25, 0x00	; 0
    24da:	b6 01       	movw	r22, r12
    24dc:	0c c0       	rjmp	.+24     	; 0x24f6 <__stack+0x2f7>
    24de:	8a 2d       	mov	r24, r10
    24e0:	86 78       	andi	r24, 0x86	; 134
    24e2:	51 f0       	breq	.+20     	; 0x24f8 <__stack+0x2f9>
    24e4:	a1 fe       	sbrs	r10, 1
    24e6:	02 c0       	rjmp	.+4      	; 0x24ec <__stack+0x2ed>
    24e8:	8b e2       	ldi	r24, 0x2B	; 43
    24ea:	01 c0       	rjmp	.+2      	; 0x24ee <__stack+0x2ef>
    24ec:	80 e2       	ldi	r24, 0x20	; 32
    24ee:	a7 fc       	sbrc	r10, 7
    24f0:	8d e2       	ldi	r24, 0x2D	; 45
    24f2:	b6 01       	movw	r22, r12
    24f4:	90 e0       	ldi	r25, 0x00	; 0
    24f6:	50 d0       	rcall	.+160    	; 0x2598 <fputc>
    24f8:	89 14       	cp	r8, r9
    24fa:	30 f4       	brcc	.+12     	; 0x2508 <__stack+0x309>
    24fc:	b6 01       	movw	r22, r12
    24fe:	80 e3       	ldi	r24, 0x30	; 48
    2500:	90 e0       	ldi	r25, 0x00	; 0
    2502:	4a d0       	rcall	.+148    	; 0x2598 <fputc>
    2504:	9a 94       	dec	r9
    2506:	f8 cf       	rjmp	.-16     	; 0x24f8 <__stack+0x2f9>
    2508:	8a 94       	dec	r8
    250a:	f3 01       	movw	r30, r6
    250c:	e8 0d       	add	r30, r8
    250e:	f1 1d       	adc	r31, r1
    2510:	80 81       	ld	r24, Z
    2512:	b6 01       	movw	r22, r12
    2514:	90 e0       	ldi	r25, 0x00	; 0
    2516:	40 d0       	rcall	.+128    	; 0x2598 <fputc>
    2518:	81 10       	cpse	r8, r1
    251a:	f6 cf       	rjmp	.-20     	; 0x2508 <__stack+0x309>
    251c:	22 20       	and	r2, r2
    251e:	09 f4       	brne	.+2      	; 0x2522 <__stack+0x323>
    2520:	4e ce       	rjmp	.-868    	; 0x21be <vfprintf+0x4c>
    2522:	b6 01       	movw	r22, r12
    2524:	80 e2       	ldi	r24, 0x20	; 32
    2526:	90 e0       	ldi	r25, 0x00	; 0
    2528:	37 d0       	rcall	.+110    	; 0x2598 <fputc>
    252a:	2a 94       	dec	r2
    252c:	f7 cf       	rjmp	.-18     	; 0x251c <__stack+0x31d>
    252e:	f6 01       	movw	r30, r12
    2530:	86 81       	ldd	r24, Z+6	; 0x06
    2532:	97 81       	ldd	r25, Z+7	; 0x07
    2534:	02 c0       	rjmp	.+4      	; 0x253a <__stack+0x33b>
    2536:	8f ef       	ldi	r24, 0xFF	; 255
    2538:	9f ef       	ldi	r25, 0xFF	; 255
    253a:	2b 96       	adiw	r28, 0x0b	; 11
    253c:	0f b6       	in	r0, 0x3f	; 63
    253e:	f8 94       	cli
    2540:	de bf       	out	0x3e, r29	; 62
    2542:	0f be       	out	0x3f, r0	; 63
    2544:	cd bf       	out	0x3d, r28	; 61
    2546:	df 91       	pop	r29
    2548:	cf 91       	pop	r28
    254a:	1f 91       	pop	r17
    254c:	0f 91       	pop	r16
    254e:	ff 90       	pop	r15
    2550:	ef 90       	pop	r14
    2552:	df 90       	pop	r13
    2554:	cf 90       	pop	r12
    2556:	bf 90       	pop	r11
    2558:	af 90       	pop	r10
    255a:	9f 90       	pop	r9
    255c:	8f 90       	pop	r8
    255e:	7f 90       	pop	r7
    2560:	6f 90       	pop	r6
    2562:	5f 90       	pop	r5
    2564:	4f 90       	pop	r4
    2566:	3f 90       	pop	r3
    2568:	2f 90       	pop	r2
    256a:	08 95       	ret

0000256c <strnlen_P>:
    256c:	fc 01       	movw	r30, r24
    256e:	05 90       	lpm	r0, Z+
    2570:	61 50       	subi	r22, 0x01	; 1
    2572:	70 40       	sbci	r23, 0x00	; 0
    2574:	01 10       	cpse	r0, r1
    2576:	d8 f7       	brcc	.-10     	; 0x256e <strnlen_P+0x2>
    2578:	80 95       	com	r24
    257a:	90 95       	com	r25
    257c:	8e 0f       	add	r24, r30
    257e:	9f 1f       	adc	r25, r31
    2580:	08 95       	ret

00002582 <strnlen>:
    2582:	fc 01       	movw	r30, r24
    2584:	61 50       	subi	r22, 0x01	; 1
    2586:	70 40       	sbci	r23, 0x00	; 0
    2588:	01 90       	ld	r0, Z+
    258a:	01 10       	cpse	r0, r1
    258c:	d8 f7       	brcc	.-10     	; 0x2584 <strnlen+0x2>
    258e:	80 95       	com	r24
    2590:	90 95       	com	r25
    2592:	8e 0f       	add	r24, r30
    2594:	9f 1f       	adc	r25, r31
    2596:	08 95       	ret

00002598 <fputc>:
    2598:	0f 93       	push	r16
    259a:	1f 93       	push	r17
    259c:	cf 93       	push	r28
    259e:	df 93       	push	r29
    25a0:	fb 01       	movw	r30, r22
    25a2:	23 81       	ldd	r18, Z+3	; 0x03
    25a4:	21 fd       	sbrc	r18, 1
    25a6:	03 c0       	rjmp	.+6      	; 0x25ae <fputc+0x16>
    25a8:	8f ef       	ldi	r24, 0xFF	; 255
    25aa:	9f ef       	ldi	r25, 0xFF	; 255
    25ac:	2c c0       	rjmp	.+88     	; 0x2606 <fputc+0x6e>
    25ae:	22 ff       	sbrs	r18, 2
    25b0:	16 c0       	rjmp	.+44     	; 0x25de <fputc+0x46>
    25b2:	46 81       	ldd	r20, Z+6	; 0x06
    25b4:	57 81       	ldd	r21, Z+7	; 0x07
    25b6:	24 81       	ldd	r18, Z+4	; 0x04
    25b8:	35 81       	ldd	r19, Z+5	; 0x05
    25ba:	42 17       	cp	r20, r18
    25bc:	53 07       	cpc	r21, r19
    25be:	44 f4       	brge	.+16     	; 0x25d0 <fputc+0x38>
    25c0:	a0 81       	ld	r26, Z
    25c2:	b1 81       	ldd	r27, Z+1	; 0x01
    25c4:	9d 01       	movw	r18, r26
    25c6:	2f 5f       	subi	r18, 0xFF	; 255
    25c8:	3f 4f       	sbci	r19, 0xFF	; 255
    25ca:	31 83       	std	Z+1, r19	; 0x01
    25cc:	20 83       	st	Z, r18
    25ce:	8c 93       	st	X, r24
    25d0:	26 81       	ldd	r18, Z+6	; 0x06
    25d2:	37 81       	ldd	r19, Z+7	; 0x07
    25d4:	2f 5f       	subi	r18, 0xFF	; 255
    25d6:	3f 4f       	sbci	r19, 0xFF	; 255
    25d8:	37 83       	std	Z+7, r19	; 0x07
    25da:	26 83       	std	Z+6, r18	; 0x06
    25dc:	14 c0       	rjmp	.+40     	; 0x2606 <fputc+0x6e>
    25de:	8b 01       	movw	r16, r22
    25e0:	ec 01       	movw	r28, r24
    25e2:	fb 01       	movw	r30, r22
    25e4:	00 84       	ldd	r0, Z+8	; 0x08
    25e6:	f1 85       	ldd	r31, Z+9	; 0x09
    25e8:	e0 2d       	mov	r30, r0
    25ea:	19 95       	eicall
    25ec:	89 2b       	or	r24, r25
    25ee:	e1 f6       	brne	.-72     	; 0x25a8 <fputc+0x10>
    25f0:	d8 01       	movw	r26, r16
    25f2:	16 96       	adiw	r26, 0x06	; 6
    25f4:	8d 91       	ld	r24, X+
    25f6:	9c 91       	ld	r25, X
    25f8:	17 97       	sbiw	r26, 0x07	; 7
    25fa:	01 96       	adiw	r24, 0x01	; 1
    25fc:	17 96       	adiw	r26, 0x07	; 7
    25fe:	9c 93       	st	X, r25
    2600:	8e 93       	st	-X, r24
    2602:	16 97       	sbiw	r26, 0x06	; 6
    2604:	ce 01       	movw	r24, r28
    2606:	df 91       	pop	r29
    2608:	cf 91       	pop	r28
    260a:	1f 91       	pop	r17
    260c:	0f 91       	pop	r16
    260e:	08 95       	ret

00002610 <__ultoa_invert>:
    2610:	fa 01       	movw	r30, r20
    2612:	aa 27       	eor	r26, r26
    2614:	28 30       	cpi	r18, 0x08	; 8
    2616:	51 f1       	breq	.+84     	; 0x266c <__ultoa_invert+0x5c>
    2618:	20 31       	cpi	r18, 0x10	; 16
    261a:	81 f1       	breq	.+96     	; 0x267c <__ultoa_invert+0x6c>
    261c:	e8 94       	clt
    261e:	6f 93       	push	r22
    2620:	6e 7f       	andi	r22, 0xFE	; 254
    2622:	6e 5f       	subi	r22, 0xFE	; 254
    2624:	7f 4f       	sbci	r23, 0xFF	; 255
    2626:	8f 4f       	sbci	r24, 0xFF	; 255
    2628:	9f 4f       	sbci	r25, 0xFF	; 255
    262a:	af 4f       	sbci	r26, 0xFF	; 255
    262c:	b1 e0       	ldi	r27, 0x01	; 1
    262e:	3e d0       	rcall	.+124    	; 0x26ac <__ultoa_invert+0x9c>
    2630:	b4 e0       	ldi	r27, 0x04	; 4
    2632:	3c d0       	rcall	.+120    	; 0x26ac <__ultoa_invert+0x9c>
    2634:	67 0f       	add	r22, r23
    2636:	78 1f       	adc	r23, r24
    2638:	89 1f       	adc	r24, r25
    263a:	9a 1f       	adc	r25, r26
    263c:	a1 1d       	adc	r26, r1
    263e:	68 0f       	add	r22, r24
    2640:	79 1f       	adc	r23, r25
    2642:	8a 1f       	adc	r24, r26
    2644:	91 1d       	adc	r25, r1
    2646:	a1 1d       	adc	r26, r1
    2648:	6a 0f       	add	r22, r26
    264a:	71 1d       	adc	r23, r1
    264c:	81 1d       	adc	r24, r1
    264e:	91 1d       	adc	r25, r1
    2650:	a1 1d       	adc	r26, r1
    2652:	20 d0       	rcall	.+64     	; 0x2694 <__ultoa_invert+0x84>
    2654:	09 f4       	brne	.+2      	; 0x2658 <__ultoa_invert+0x48>
    2656:	68 94       	set
    2658:	3f 91       	pop	r19
    265a:	2a e0       	ldi	r18, 0x0A	; 10
    265c:	26 9f       	mul	r18, r22
    265e:	11 24       	eor	r1, r1
    2660:	30 19       	sub	r19, r0
    2662:	30 5d       	subi	r19, 0xD0	; 208
    2664:	31 93       	st	Z+, r19
    2666:	de f6       	brtc	.-74     	; 0x261e <__ultoa_invert+0xe>
    2668:	cf 01       	movw	r24, r30
    266a:	08 95       	ret
    266c:	46 2f       	mov	r20, r22
    266e:	47 70       	andi	r20, 0x07	; 7
    2670:	40 5d       	subi	r20, 0xD0	; 208
    2672:	41 93       	st	Z+, r20
    2674:	b3 e0       	ldi	r27, 0x03	; 3
    2676:	0f d0       	rcall	.+30     	; 0x2696 <__ultoa_invert+0x86>
    2678:	c9 f7       	brne	.-14     	; 0x266c <__ultoa_invert+0x5c>
    267a:	f6 cf       	rjmp	.-20     	; 0x2668 <__ultoa_invert+0x58>
    267c:	46 2f       	mov	r20, r22
    267e:	4f 70       	andi	r20, 0x0F	; 15
    2680:	40 5d       	subi	r20, 0xD0	; 208
    2682:	4a 33       	cpi	r20, 0x3A	; 58
    2684:	18 f0       	brcs	.+6      	; 0x268c <__ultoa_invert+0x7c>
    2686:	49 5d       	subi	r20, 0xD9	; 217
    2688:	31 fd       	sbrc	r19, 1
    268a:	40 52       	subi	r20, 0x20	; 32
    268c:	41 93       	st	Z+, r20
    268e:	02 d0       	rcall	.+4      	; 0x2694 <__ultoa_invert+0x84>
    2690:	a9 f7       	brne	.-22     	; 0x267c <__ultoa_invert+0x6c>
    2692:	ea cf       	rjmp	.-44     	; 0x2668 <__ultoa_invert+0x58>
    2694:	b4 e0       	ldi	r27, 0x04	; 4
    2696:	a6 95       	lsr	r26
    2698:	97 95       	ror	r25
    269a:	87 95       	ror	r24
    269c:	77 95       	ror	r23
    269e:	67 95       	ror	r22
    26a0:	ba 95       	dec	r27
    26a2:	c9 f7       	brne	.-14     	; 0x2696 <__ultoa_invert+0x86>
    26a4:	00 97       	sbiw	r24, 0x00	; 0
    26a6:	61 05       	cpc	r22, r1
    26a8:	71 05       	cpc	r23, r1
    26aa:	08 95       	ret
    26ac:	9b 01       	movw	r18, r22
    26ae:	ac 01       	movw	r20, r24
    26b0:	0a 2e       	mov	r0, r26
    26b2:	06 94       	lsr	r0
    26b4:	57 95       	ror	r21
    26b6:	47 95       	ror	r20
    26b8:	37 95       	ror	r19
    26ba:	27 95       	ror	r18
    26bc:	ba 95       	dec	r27
    26be:	c9 f7       	brne	.-14     	; 0x26b2 <__ultoa_invert+0xa2>
    26c0:	62 0f       	add	r22, r18
    26c2:	73 1f       	adc	r23, r19
    26c4:	84 1f       	adc	r24, r20
    26c6:	95 1f       	adc	r25, r21
    26c8:	a0 1d       	adc	r26, r0
    26ca:	08 95       	ret

000026cc <_exit>:
    26cc:	f8 94       	cli

000026ce <__stop_program>:
    26ce:	ff cf       	rjmp	.-2      	; 0x26ce <__stop_program>
